(imatplotlib.font_manager
FontManager
p1
(dp2
S'afm_lookup_cache'
p3
(dp4
sS'ttflist'
p5
(lp6
ccopy_reg
_reconstructor
p7
(cmatplotlib.font_manager
FontEntry
p8
c__builtin__
object
p9
NtRp10
(dp11
S'style'
p12
S'italic'
p13
sS'name'
p14
S'STIXGeneral'
p15
sS'weight'
p16
I700
sS'stretch'
p17
S'normal'
p18
sS'variant'
p19
g18
sS'fname'
p20
S'/opt/local/Library/Frameworks/Python.framework/Versions/2.7/lib/python2.7/site-packages/matplotlib/mpl-data/fonts/ttf/STIXGeneralBolIta.ttf'
p21
sS'size'
p22
S'scalable'
p23
sbag7
(g8
g9
NtRp24
(dp25
g12
g18
sg14
S'Bitstream Vera Sans'
p26
sg16
I700
sg17
g18
sg19
g18
sg20
S'/opt/local/Library/Frameworks/Python.framework/Versions/2.7/lib/python2.7/site-packages/matplotlib/mpl-data/fonts/ttf/VeraBd.ttf'
p27
sg22
g23
sbag7
(g8
g9
NtRp28
(dp29
g12
g18
sg14
S'STIXNonUnicode'
p30
sg16
I700
sg17
g18
sg19
g18
sg20
S'/opt/local/Library/Frameworks/Python.framework/Versions/2.7/lib/python2.7/site-packages/matplotlib/mpl-data/fonts/ttf/STIXNonUniBol.ttf'
p31
sg22
g23
sbag7
(g8
g9
NtRp32
(dp33
g12
g18
sg14
S'STIXGeneral'
p34
sg16
I400
sg17
g18
sg19
g18
sg20
S'/opt/local/Library/Frameworks/Python.framework/Versions/2.7/lib/python2.7/site-packages/matplotlib/mpl-data/fonts/ttf/STIXGeneral.ttf'
p35
sg22
g23
sbag7
(g8
g9
NtRp36
(dp37
g12
g18
sg14
S'cmsy10'
p38
sg16
I400
sg17
g18
sg19
g18
sg20
S'/opt/local/Library/Frameworks/Python.framework/Versions/2.7/lib/python2.7/site-packages/matplotlib/mpl-data/fonts/ttf/cmsy10.ttf'
p39
sg22
g23
sbag7
(g8
g9
NtRp40
(dp41
g12
g18
sg14
S'STIXSizeTwoSym'
p42
sg16
I700
sg17
g18
sg19
g18
sg20
S'/opt/local/Library/Frameworks/Python.framework/Versions/2.7/lib/python2.7/site-packages/matplotlib/mpl-data/fonts/ttf/STIXSizTwoSymBol.ttf'
p43
sg22
g23
sbag7
(g8
g9
NtRp44
(dp45
g12
g18
sg14
S'cmss10'
p46
sg16
I400
sg17
g18
sg19
g18
sg20
S'/opt/local/Library/Frameworks/Python.framework/Versions/2.7/lib/python2.7/site-packages/matplotlib/mpl-data/fonts/ttf/cmss10.ttf'
p47
sg22
g23
sbag7
(g8
g9
NtRp48
(dp49
g12
g18
sg14
S'cmtt10'
p50
sg16
I400
sg17
g18
sg19
g18
sg20
S'/opt/local/Library/Frameworks/Python.framework/Versions/2.7/lib/python2.7/site-packages/matplotlib/mpl-data/fonts/ttf/cmtt10.ttf'
p51
sg22
g23
sbag7
(g8
g9
NtRp52
(dp53
g12
g18
sg14
S'STIXSizeThreeSym'
p54
sg16
I700
sg17
g18
sg19
g18
sg20
S'/opt/local/Library/Frameworks/Python.framework/Versions/2.7/lib/python2.7/site-packages/matplotlib/mpl-data/fonts/ttf/STIXSizThreeSymBol.ttf'
p55
sg22
g23
sbag7
(g8
g9
NtRp56
(dp57
g12
g18
sg14
S'STIXSizeFourSym'
p58
sg16
I400
sg17
g18
sg19
g18
sg20
S'/opt/local/Library/Frameworks/Python.framework/Versions/2.7/lib/python2.7/site-packages/matplotlib/mpl-data/fonts/ttf/STIXSizFourSymReg.ttf'
p59
sg22
g23
sbag7
(g8
g9
NtRp60
(dp61
g12
g13
sg14
S'STIXNonUnicode'
p62
sg16
I700
sg17
g18
sg19
g18
sg20
S'/opt/local/Library/Frameworks/Python.framework/Versions/2.7/lib/python2.7/site-packages/matplotlib/mpl-data/fonts/ttf/STIXNonUniBolIta.ttf'
p63
sg22
g23
sbag7
(g8
g9
NtRp64
(dp65
g12
g18
sg14
S'STIXSizeOneSym'
p66
sg16
I700
sg17
g18
sg19
g18
sg20
S'/opt/local/Library/Frameworks/Python.framework/Versions/2.7/lib/python2.7/site-packages/matplotlib/mpl-data/fonts/ttf/STIXSizOneSymBol.ttf'
p67
sg22
g23
sbag7
(g8
g9
NtRp68
(dp69
g12
g13
sg14
S'STIXGeneral'
p70
sg16
I400
sg17
g18
sg19
g18
sg20
S'/opt/local/Library/Frameworks/Python.framework/Versions/2.7/lib/python2.7/site-packages/matplotlib/mpl-data/fonts/ttf/STIXGeneralItalic.ttf'
p71
sg22
g23
sbag7
(g8
g9
NtRp72
(dp73
g12
S'oblique'
p74
sg14
S'Bitstream Vera Sans'
p75
sg16
I700
sg17
g18
sg19
g18
sg20
S'/opt/local/Library/Frameworks/Python.framework/Versions/2.7/lib/python2.7/site-packages/matplotlib/mpl-data/fonts/ttf/VeraBI.ttf'
p76
sg22
g23
sbag7
(g8
g9
NtRp77
(dp78
g12
g18
sg14
S'cmex10'
p79
sg16
I400
sg17
g18
sg19
g18
sg20
S'/opt/local/Library/Frameworks/Python.framework/Versions/2.7/lib/python2.7/site-packages/matplotlib/mpl-data/fonts/ttf/cmex10.ttf'
p80
sg22
g23
sbag7
(g8
g9
NtRp81
(dp82
g12
g18
sg14
S'STIXSizeFourSym'
p83
sg16
I700
sg17
g18
sg19
g18
sg20
S'/opt/local/Library/Frameworks/Python.framework/Versions/2.7/lib/python2.7/site-packages/matplotlib/mpl-data/fonts/ttf/STIXSizFourSymBol.ttf'
p84
sg22
g23
sbag7
(g8
g9
NtRp85
(dp86
g12
g74
sg14
S'Bitstream Vera Sans Mono'
p87
sg16
I700
sg17
g18
sg19
g18
sg20
S'/opt/local/Library/Frameworks/Python.framework/Versions/2.7/lib/python2.7/site-packages/matplotlib/mpl-data/fonts/ttf/VeraMoBI.ttf'
p88
sg22
g23
sbag7
(g8
g9
NtRp89
(dp90
g12
g18
sg14
S'STIXSizeOneSym'
p91
sg16
I400
sg17
g18
sg19
g18
sg20
S'/opt/local/Library/Frameworks/Python.framework/Versions/2.7/lib/python2.7/site-packages/matplotlib/mpl-data/fonts/ttf/STIXSizOneSymReg.ttf'
p92
sg22
g23
sbag7
(g8
g9
NtRp93
(dp94
g12
g13
sg14
S'STIXNonUnicode'
p95
sg16
I400
sg17
g18
sg19
g18
sg20
S'/opt/local/Library/Frameworks/Python.framework/Versions/2.7/lib/python2.7/site-packages/matplotlib/mpl-data/fonts/ttf/STIXNonUniIta.ttf'
p96
sg22
g23
sbag7
(g8
g9
NtRp97
(dp98
g12
g74
sg14
S'Bitstream Vera Sans Mono'
p99
sg16
I400
sg17
g18
sg19
g18
sg20
S'/opt/local/Library/Frameworks/Python.framework/Versions/2.7/lib/python2.7/site-packages/matplotlib/mpl-data/fonts/ttf/VeraMoIt.ttf'
p100
sg22
g23
sbag7
(g8
g9
NtRp101
(dp102
g12
g18
sg14
S'Bitstream Vera Sans Mono'
p103
sg16
I400
sg17
g18
sg19
g18
sg20
S'/opt/local/Library/Frameworks/Python.framework/Versions/2.7/lib/python2.7/site-packages/matplotlib/mpl-data/fonts/ttf/VeraMono.ttf'
p104
sg22
g23
sbag7
(g8
g9
NtRp105
(dp106
g12
g18
sg14
S'STIXNonUnicode'
p107
sg16
I400
sg17
g18
sg19
g18
sg20
S'/opt/local/Library/Frameworks/Python.framework/Versions/2.7/lib/python2.7/site-packages/matplotlib/mpl-data/fonts/ttf/STIXNonUni.ttf'
p108
sg22
g23
sbag7
(g8
g9
NtRp109
(dp110
g12
g18
sg14
S'Bitstream Vera Sans'
p111
sg16
I400
sg17
g18
sg19
g18
sg20
S'/opt/local/Library/Frameworks/Python.framework/Versions/2.7/lib/python2.7/site-packages/matplotlib/mpl-data/fonts/ttf/Vera.ttf'
p112
sg22
g23
sbag7
(g8
g9
NtRp113
(dp114
g12
g18
sg14
S'STIXSizeTwoSym'
p115
sg16
I400
sg17
g18
sg19
g18
sg20
S'/opt/local/Library/Frameworks/Python.framework/Versions/2.7/lib/python2.7/site-packages/matplotlib/mpl-data/fonts/ttf/STIXSizTwoSymReg.ttf'
p116
sg22
g23
sbag7
(g8
g9
NtRp117
(dp118
g12
g18
sg14
S'Bitstream Vera Serif'
p119
sg16
I400
sg17
g18
sg19
g18
sg20
S'/opt/local/Library/Frameworks/Python.framework/Versions/2.7/lib/python2.7/site-packages/matplotlib/mpl-data/fonts/ttf/VeraSe.ttf'
p120
sg22
g23
sbag7
(g8
g9
NtRp121
(dp122
g12
g18
sg14
S'cmmi10'
p123
sg16
I400
sg17
g18
sg19
g18
sg20
S'/opt/local/Library/Frameworks/Python.framework/Versions/2.7/lib/python2.7/site-packages/matplotlib/mpl-data/fonts/ttf/cmmi10.ttf'
p124
sg22
g23
sbag7
(g8
g9
NtRp125
(dp126
g12
g18
sg14
S'STIXGeneral'
p127
sg16
I700
sg17
g18
sg19
g18
sg20
S'/opt/local/Library/Frameworks/Python.framework/Versions/2.7/lib/python2.7/site-packages/matplotlib/mpl-data/fonts/ttf/STIXGeneralBol.ttf'
p128
sg22
g23
sbag7
(g8
g9
NtRp129
(dp130
g12
g74
sg14
S'Bitstream Vera Sans'
p131
sg16
I400
sg17
g18
sg19
g18
sg20
S'/opt/local/Library/Frameworks/Python.framework/Versions/2.7/lib/python2.7/site-packages/matplotlib/mpl-data/fonts/ttf/VeraIt.ttf'
p132
sg22
g23
sbag7
(g8
g9
NtRp133
(dp134
g12
g18
sg14
S'STIXSizeThreeSym'
p135
sg16
I400
sg17
g18
sg19
g18
sg20
S'/opt/local/Library/Frameworks/Python.framework/Versions/2.7/lib/python2.7/site-packages/matplotlib/mpl-data/fonts/ttf/STIXSizThreeSymReg.ttf'
p136
sg22
g23
sbag7
(g8
g9
NtRp137
(dp138
g12
g18
sg14
S'Bitstream Vera Serif'
p139
sg16
I700
sg17
g18
sg19
g18
sg20
S'/opt/local/Library/Frameworks/Python.framework/Versions/2.7/lib/python2.7/site-packages/matplotlib/mpl-data/fonts/ttf/VeraSeBd.ttf'
p140
sg22
g23
sbag7
(g8
g9
NtRp141
(dp142
g12
g18
sg14
S'cmr10'
p143
sg16
I400
sg17
g18
sg19
g18
sg20
S'/opt/local/Library/Frameworks/Python.framework/Versions/2.7/lib/python2.7/site-packages/matplotlib/mpl-data/fonts/ttf/cmr10.ttf'
p144
sg22
g23
sbag7
(g8
g9
NtRp145
(dp146
g12
g18
sg14
S'cmb10'
p147
sg16
I400
sg17
g18
sg19
g18
sg20
S'/opt/local/Library/Frameworks/Python.framework/Versions/2.7/lib/python2.7/site-packages/matplotlib/mpl-data/fonts/ttf/cmb10.ttf'
p148
sg22
g23
sbag7
(g8
g9
NtRp149
(dp150
g12
g18
sg14
S'Bitstream Vera Sans Mono'
p151
sg16
I700
sg17
g18
sg19
g18
sg20
S'/opt/local/Library/Frameworks/Python.framework/Versions/2.7/lib/python2.7/site-packages/matplotlib/mpl-data/fonts/ttf/VeraMoBd.ttf'
p152
sg22
g23
sbag7
(g8
g9
NtRp153
(dp154
g12
g18
sg14
S'STIXSizeFiveSym'
p155
sg16
I400
sg17
g18
sg19
g18
sg20
S'/opt/local/Library/Frameworks/Python.framework/Versions/2.7/lib/python2.7/site-packages/matplotlib/mpl-data/fonts/ttf/STIXSizFiveSymReg.ttf'
p156
sg22
g23
sbag7
(g8
g9
NtRp157
(dp158
g12
g18
sg14
S'Serto Mardin'
p159
sg16
I700
sg17
g18
sg19
g18
sg20
S'/usr/X11R6/lib/X11/fonts/OTF/SyrCOMMardinBold.otf'
p160
sg22
g23
sbag7
(g8
g9
NtRp161
(dp162
g12
g13
sg14
S'Trebuchet MS'
p163
sg16
I400
sg17
g18
sg19
g18
sg20
S'/Library/Fonts/Trebuchet MS Italic.ttf'
p164
sg22
g23
sbag7
(g8
g9
NtRp165
(dp166
g12
g18
sg14
S'Hoefler Text'
p167
sg16
I400
sg17
g18
sg19
g18
sg20
S'/Library/Fonts/Hoefler Text Ornaments.ttf'
p168
sg22
g23
sbag7
(g8
g9
NtRp169
(dp170
g12
g13
sg14
S'New Peninim MT'
p171
sg16
I700
sg17
g18
sg19
g18
sg20
S'/Library/Fonts/NewPeninimMTBoldInclined.ttf'
p172
sg22
g23
sbag7
(g8
g9
NtRp173
(dp174
g12
g18
sg14
S'Mshtakan'
p175
sg16
I400
sg17
g18
sg19
g18
sg20
S'/Library/Fonts/MshtakanRegular.ttf'
p176
sg22
g23
sbag7
(g8
g9
NtRp177
(dp178
g12
g18
sg14
S'Hiragino Mincho ProN'
p179
sg16
I700
sg17
g18
sg19
g18
sg20
S'/System/Library/Fonts/\xe3\x83\x92\xe3\x83\xa9\xe3\x82\xad\xe3\x82\x99\xe3\x83\x8e\xe6\x98\x8e\xe6\x9c\x9d ProN W6.otf'
p180
sg22
g23
sbag7
(g8
g9
NtRp181
(dp182
g12
g18
sg14
S'Osaka'
p183
sg16
I400
sg17
g18
sg19
g18
sg20
S'/Library/Fonts/Osaka.ttf'
p184
sg22
g23
sbag7
(g8
g9
NtRp185
(dp186
g12
g74
sg14
S'Luxi Mono'
p187
sg16
I400
sg17
g18
sg19
g18
sg20
S'/usr/X11/lib/X11/fonts/TTF/luximri.ttf'
p188
sg22
g23
sbag7
(g8
g9
NtRp189
(dp190
g12
g18
sg14
S'Verdana'
p191
sg16
I700
sg17
g18
sg19
g18
sg20
S'/Library/Fonts/Verdana Bold.ttf'
p192
sg22
g23
sbag7
(g8
g9
NtRp193
(dp194
g12
g18
sg14
S'Apple SD Gothic Neo'
p195
sg16
I200
sg17
g18
sg19
g18
sg20
S'/Library/Fonts/AppleSDGothicNeo-UltraLight.otf'
p196
sg22
g23
sbag7
(g8
g9
NtRp197
(dp198
g12
g74
sg14
S'Luxi Sans'
p199
sg16
I700
sg17
g18
sg19
g18
sg20
S'/opt/X11/share/fonts/TTF/luxisbi.ttf'
p200
sg22
g23
sbag7
(g8
g9
NtRp201
(dp202
g12
g18
sg14
S'LiHei Pro'
p203
sg16
I400
sg17
g18
sg19
g18
sg20
S'/Library/Fonts/\xe5\x84\xb7\xe9\xbb\x91 Pro.ttf'
p204
sg22
g23
sbag7
(g8
g9
NtRp205
(dp206
g12
g18
sg14
S'Arial Unicode MS'
p207
sg16
I400
sg17
g18
sg19
g18
sg20
S'/Library/Fonts/Arial Unicode.ttf'
p208
sg22
g23
sbag7
(g8
g9
NtRp209
(dp210
g12
g18
sg14
S'STIXSizeThreeSym'
p211
sg16
I400
sg17
g18
sg19
g18
sg20
S'/Library/Fonts/STIXSizThreeSymReg.otf'
p212
sg22
g23
sbag7
(g8
g9
NtRp213
(dp214
g12
g74
sg14
S'Luxi Sans'
p215
sg16
I400
sg17
g18
sg19
g18
sg20
S'/usr/X11/lib/X11/fonts/TTF/luxisri.ttf'
p216
sg22
g23
sbag7
(g8
g9
NtRp217
(dp218
g12
g18
sg14
S'Estrangelo Nisibin'
p219
sg16
I400
sg17
g18
sg19
g18
sg20
S'/usr/X11/lib/X11/fonts/OTF/SyrCOMNisibin.otf'
p220
sg22
g23
sbag7
(g8
g9
NtRp221
(dp222
g12
g18
sg14
S'Estrangelo Talada'
p223
sg16
I400
sg17
g18
sg19
g18
sg20
S'/usr/X11R6/lib/X11/fonts/OTF/SyrCOMTalada.otf'
p224
sg22
g23
sbag7
(g8
g9
NtRp225
(dp226
g12
g74
sg14
S'Luxi Serif'
p227
sg16
I400
sg17
g18
sg19
g18
sg20
S'/usr/X11R6/lib/X11/fonts/TTF/luxirri.ttf'
p228
sg22
g23
sbag7
(g8
g9
NtRp229
(dp230
g12
g18
sg14
S'Serto Kharput'
p231
sg16
I400
sg17
g18
sg19
g18
sg20
S'/usr/X11R6/lib/X11/fonts/OTF/SyrCOMKharput.otf'
p232
sg22
g23
sbag7
(g8
g9
NtRp233
(dp234
g12
g18
sg14
S'New Peninim MT'
p235
sg16
I400
sg17
g18
sg19
g18
sg20
S'/Library/Fonts/NewPeninimMT.ttf'
p236
sg22
g23
sbag7
(g8
g9
NtRp237
(dp238
g12
g18
sg14
S'Times New Roman'
p239
sg16
I500
sg17
g18
sg19
g18
sg20
S'/Library/Fonts/Times New Roman.ttf'
p240
sg22
g23
sbag7
(g8
g9
NtRp241
(dp242
g12
g18
sg14
S'Apple SD Gothic Neo'
p243
sg16
I800
sg17
g18
sg19
g18
sg20
S'/Library/Fonts/AppleSDGothicNeo-Heavy.otf'
p244
sg22
g23
sbag7
(g8
g9
NtRp245
(dp246
g12
g18
sg14
S'Arial'
p247
sg16
I400
sg17
g18
sg19
g18
sg20
S'/Library/Fonts/Arial.ttf'
p248
sg22
g23
sbag7
(g8
g9
NtRp249
(dp250
g12
g18
sg14
S'Raanana'
p251
sg16
I400
sg17
g18
sg19
g18
sg20
S'/Library/Fonts/Raanana.ttf'
p252
sg22
g23
sbag7
(g8
g9
NtRp253
(dp254
g12
g18
sg14
S'AppleGothic'
p255
sg16
I400
sg17
g18
sg19
g18
sg20
S'/Library/Fonts/AppleGothic.ttf'
p256
sg22
g23
sbag7
(g8
g9
NtRp257
(dp258
g12
g18
sg14
S'Serto Jerusalem'
p259
sg16
I700
sg17
g18
sg19
g18
sg20
S'/usr/X11R6/lib/X11/fonts/OTF/SyrCOMJerusalemBold.otf'
p260
sg22
g23
sbag7
(g8
g9
NtRp261
(dp262
g12
g18
sg14
S'Gujarati MT'
p263
sg16
I700
sg17
g18
sg19
g18
sg20
S'/Library/Fonts/GujaratiMTBold.ttf'
p264
sg22
g23
sbag7
(g8
g9
NtRp265
(dp266
g12
g18
sg14
S'Arial Narrow'
p267
sg16
I400
sg17
S'condensed'
p268
sg19
g18
sg20
S'/Library/Fonts/Arial Narrow.ttf'
p269
sg22
g23
sbag7
(g8
g9
NtRp270
(dp271
g12
g18
sg14
S'Apple SD Gothic Neo'
p272
sg16
I700
sg17
g18
sg19
g18
sg20
S'/System/Library/Fonts/AppleSDGothicNeo-Bold.otf'
p273
sg22
g23
sbag7
(g8
g9
NtRp274
(dp275
g12
g18
sg14
S'Estrangelo Quenneshrin'
p276
sg16
I400
sg17
g18
sg19
g18
sg20
S'/opt/X11/share/fonts/OTF/SyrCOMQenNeshrin.otf'
p277
sg22
g23
sbag7
(g8
g9
NtRp278
(dp279
g12
g74
sg14
S'Mshtakan'
p280
sg16
I400
sg17
g18
sg19
g18
sg20
S'/Library/Fonts/MshtakanOblique.ttf'
p281
sg22
g23
sbag7
(g8
g9
NtRp282
(dp283
g12
g18
sg14
S'Hiragino Kaku Gothic Pro'
p284
sg16
I400
sg17
g18
sg19
g18
sg20
S'/Library/Fonts/\xe3\x83\x92\xe3\x83\xa9\xe3\x82\xad\xe3\x82\x99\xe3\x83\x8e\xe8\xa7\x92\xe3\x82\xb3\xe3\x82\x99 Pro W3.otf'
p285
sg22
g23
sbag7
(g8
g9
NtRp286
(dp287
g12
g74
sg14
S'Luxi Mono'
p288
sg16
I700
sg17
g18
sg19
g18
sg20
S'/opt/X11/share/fonts/TTF/luximbi.ttf'
p289
sg22
g23
sbag7
(g8
g9
NtRp290
(dp291
g12
g18
sg14
S'Serto Mardin'
p292
sg16
I400
sg17
g18
sg19
g18
sg20
S'/opt/X11/share/fonts/OTF/SyrCOMMardin.otf'
p293
sg22
g23
sbag7
(g8
g9
NtRp294
(dp295
g12
g18
sg14
S'East Syriac Adiabene'
p296
sg16
I400
sg17
g18
sg19
g18
sg20
S'/opt/X11/share/fonts/OTF/SyrCOMAdiabene.otf'
p297
sg22
g23
sbag7
(g8
g9
NtRp298
(dp299
g12
g18
sg14
S'AppleMyungjo'
p300
sg16
I400
sg17
g18
sg19
g18
sg20
S'/Library/Fonts/AppleMyungjo.ttf'
p301
sg22
g23
sbag7
(g8
g9
NtRp302
(dp303
g12
g18
sg14
S'Serto Jerusalem Outline'
p304
sg16
I400
sg17
g18
sg19
g18
sg20
S'/usr/X11/lib/X11/fonts/OTF/SyrCOMJerusalemOutline.otf'
p305
sg22
g23
sbag7
(g8
g9
NtRp306
(dp307
g12
g18
sg14
S'Zapf Dingbats'
p308
sg16
I400
sg17
g18
sg19
g18
sg20
S'/System/Library/Fonts/ZapfDingbats.ttf'
p309
sg22
g23
sbag7
(g8
g9
NtRp310
(dp311
g12
g18
sg14
S'Verdana'
p312
sg16
I400
sg17
g18
sg19
g18
sg20
S'/Library/Fonts/Verdana.ttf'
p313
sg22
g23
sbag7
(g8
g9
NtRp314
(dp315
g12
g18
sg14
S'Corsiva Hebrew'
p316
sg16
I400
sg17
g18
sg19
g18
sg20
S'/Library/Fonts/Corsiva.ttf'
p317
sg22
g23
sbag7
(g8
g9
NtRp318
(dp319
g12
g18
sg14
S'Luxi Mono'
p320
sg16
I700
sg17
g18
sg19
g18
sg20
S'/opt/X11/share/fonts/TTF/luximb.ttf'
p321
sg22
g23
sbag7
(g8
g9
NtRp322
(dp323
g12
g18
sg14
S'STIXIntegralsD'
p324
sg16
I700
sg17
g18
sg19
g18
sg20
S'/Library/Fonts/STIXIntDBol.otf'
p325
sg22
g23
sbag7
(g8
g9
NtRp326
(dp327
g12
g18
sg14
S'Apple LiSung'
p328
sg16
I200
sg17
g18
sg19
g18
sg20
S'/Library/Fonts/Apple LiSung Light.ttf'
p329
sg22
g23
sbag7
(g8
g9
NtRp330
(dp331
g12
g18
sg14
S'Goha-Tibeb Zemen'
p332
sg16
I400
sg17
g18
sg19
g18
sg20
S'/opt/X11/share/fonts/TTF/GohaTibebZemen.ttf'
p333
sg22
g23
sbag7
(g8
g9
NtRp334
(dp335
g12
g18
sg14
S'Myanmar Sangam MN'
p336
sg16
I400
sg17
g18
sg19
g18
sg20
S'/Library/Fonts/Myanmar Sangam MN.ttf'
p337
sg22
g23
sbag7
(g8
g9
NtRp338
(dp339
g12
g18
sg14
S'STIXSizeThreeSym'
p340
sg16
I700
sg17
g18
sg19
g18
sg20
S'/Library/Fonts/STIXSizThreeSymBol.otf'
p341
sg22
g23
sbag7
(g8
g9
NtRp342
(dp343
g12
g18
sg14
S'Courier New'
p344
sg16
I400
sg17
g18
sg19
g18
sg20
S'/Library/Fonts/Courier New.ttf'
p345
sg22
g23
sbag7
(g8
g9
NtRp346
(dp347
g12
g13
sg14
S'Arial Narrow'
p348
sg16
I700
sg17
g268
sg19
g18
sg20
S'/Library/Fonts/Arial Narrow Bold Italic.ttf'
p349
sg22
g23
sbag7
(g8
g9
NtRp350
(dp351
g12
g18
sg14
S'Serto Jerusalem'
p352
sg16
I400
sg17
g18
sg19
g18
sg20
S'/usr/X11/lib/X11/fonts/OTF/SyrCOMJerusalem.otf'
p353
sg22
g23
sbag7
(g8
g9
NtRp354
(dp355
g12
g18
sg14
S'Zapfino'
p356
sg16
I400
sg17
g18
sg19
g18
sg20
S'/Library/Fonts/Zapfino.ttf'
p357
sg22
g23
sbag7
(g8
g9
NtRp358
(dp359
g12
g18
sg14
S'Arial Narrow'
p360
sg16
I700
sg17
g268
sg19
g18
sg20
S'/Library/Fonts/Arial Narrow Bold.ttf'
p361
sg22
g23
sbag7
(g8
g9
NtRp362
(dp363
g12
g13
sg14
S'Times New Roman'
p364
sg16
I500
sg17
g18
sg19
g18
sg20
S'/Library/Fonts/Times New Roman Italic.ttf'
p365
sg22
g23
sbag7
(g8
g9
NtRp366
(dp367
g12
g18
sg14
S'Krungthep'
p368
sg16
I400
sg17
g18
sg19
g18
sg20
S'/Library/Fonts/Krungthep.ttf'
p369
sg22
g23
sbag7
(g8
g9
NtRp370
(dp371
g12
g18
sg14
S'Hiragino Mincho Pro'
p372
sg16
I400
sg17
g18
sg19
g18
sg20
S'/Library/Fonts/\xe3\x83\x92\xe3\x83\xa9\xe3\x82\xad\xe3\x82\x99\xe3\x83\x8e\xe6\x98\x8e\xe6\x9c\x9d Pro W3.otf'
p373
sg22
g23
sbag7
(g8
g9
NtRp374
(dp375
g12
g18
sg14
S'Apple SD Gothic Neo'
p376
sg16
I700
sg17
g18
sg19
g18
sg20
S'/Library/Fonts/AppleSDGothicNeo-ExtraBold.otf'
p377
sg22
g23
sbag7
(g8
g9
NtRp378
(dp379
g12
g18
sg14
S'Serto Batnan'
p380
sg16
I400
sg17
g18
sg19
g18
sg20
S'/usr/X11R6/lib/X11/fonts/OTF/SyrCOMBatnan.otf'
p381
sg22
g23
sbag7
(g8
g9
NtRp382
(dp383
g12
g18
sg14
S'Goha-Tibeb Zemen'
p384
sg16
I400
sg17
g18
sg19
g18
sg20
S'/usr/X11R6/lib/X11/fonts/OTF/GohaTibebZemen.otf'
p385
sg22
g23
sbag7
(g8
g9
NtRp386
(dp387
g12
g18
sg14
S'Georgia'
p388
sg16
I400
sg17
g18
sg19
g18
sg20
S'/Library/Fonts/Georgia.ttf'
p389
sg22
g23
sbag7
(g8
g9
NtRp390
(dp391
g12
g18
sg14
S'STIXIntegralsSm'
p392
sg16
I700
sg17
g18
sg19
g18
sg20
S'/Library/Fonts/STIXIntSmBol.otf'
p393
sg22
g23
sbag7
(g8
g9
NtRp394
(dp395
g12
g18
sg14
S'Trebuchet MS'
p396
sg16
I700
sg17
g18
sg19
g18
sg20
S'/Library/Fonts/Trebuchet MS Bold.ttf'
p397
sg22
g23
sbag7
(g8
g9
NtRp398
(dp399
g12
g18
sg14
S'Estrangelo TurAbdin'
p400
sg16
I400
sg17
g18
sg19
g18
sg20
S'/usr/X11/lib/X11/fonts/OTF/SyrCOMTurAbdin.otf'
p401
sg22
g23
sbag7
(g8
g9
NtRp402
(dp403
g12
g18
sg14
S'Luxi Sans'
p404
sg16
I400
sg17
g18
sg19
g18
sg20
S'/opt/X11/share/fonts/TTF/luxisr.ttf'
p405
sg22
g23
sbag7
(g8
g9
NtRp406
(dp407
g12
g74
sg14
S'Luxi Serif'
p408
sg16
I700
sg17
g18
sg19
g18
sg20
S'/usr/X11R6/lib/X11/fonts/TTF/luxirbi.ttf'
p409
sg22
g23
sbag7
(g8
g9
NtRp410
(dp411
g12
g18
sg14
S'Apple Symbols'
p412
sg16
I400
sg17
g18
sg19
g18
sg20
S'/System/Library/Fonts/Apple Symbols.ttf'
p413
sg22
g23
sbag7
(g8
g9
NtRp414
(dp415
g12
g13
sg14
S'Times New Roman'
p416
sg16
I700
sg17
g18
sg19
g18
sg20
S'/Library/Fonts/Times New Roman Bold Italic.ttf'
p417
sg22
g23
sbag7
(g8
g9
NtRp418
(dp419
g12
g18
sg14
S'Webdings'
p420
sg16
I400
sg17
g18
sg19
g18
sg20
S'/Library/Fonts/Webdings.ttf'
p421
sg22
g23
sbag7
(g8
g9
NtRp422
(dp423
g12
g13
sg14
S'Arial Narrow'
p424
sg16
I400
sg17
g268
sg19
g18
sg20
S'/Library/Fonts/Arial Narrow Italic.ttf'
p425
sg22
g23
sbag7
(g8
g9
NtRp426
(dp427
g12
g18
sg14
S'East Syriac Ctesiphon'
p428
sg16
I400
sg17
g18
sg19
g18
sg20
S'/usr/X11/lib/X11/fonts/OTF/SyrCOMCtesiphon.otf'
p429
sg22
g23
sbag7
(g8
g9
NtRp430
(dp431
g12
g18
sg14
S'Luxi Mono'
p432
sg16
I400
sg17
g18
sg19
g18
sg20
S'/usr/X11R6/lib/X11/fonts/TTF/luximr.ttf'
p433
sg22
g23
sbag7
(g8
g9
NtRp434
(dp435
g12
g18
sg14
S'Serto Urhoy'
p436
sg16
I700
sg17
g18
sg19
g18
sg20
S'/usr/X11R6/lib/X11/fonts/OTF/SyrCOMUrhoyBold.otf'
p437
sg22
g23
sbag7
(g8
g9
NtRp438
(dp439
g12
g18
sg14
S'Hiragino Kaku Gothic ProN'
p440
sg16
I400
sg17
g18
sg19
g18
sg20
S'/System/Library/Fonts/\xe3\x83\x92\xe3\x83\xa9\xe3\x82\xad\xe3\x82\x99\xe3\x83\x8e\xe8\xa7\x92\xe3\x82\xb3\xe3\x82\x99 ProN W3.otf'
p441
sg22
g23
sbag7
(g8
g9
NtRp442
(dp443
g12
g18
sg14
S'PilGi'
p444
sg16
I400
sg17
g18
sg19
g18
sg20
S'/Library/Fonts/Pilgiche.ttf'
p445
sg22
g23
sbag7
(g8
g9
NtRp446
(dp447
g12
g18
sg14
S'Estrangelo Midyat'
p448
sg16
I400
sg17
g18
sg19
g18
sg20
S'/usr/X11/lib/X11/fonts/OTF/SyrCOMMidyat.otf'
p449
sg22
g23
sbag7
(g8
g9
NtRp450
(dp451
g12
g18
sg14
S'Apple Braille'
p452
sg16
I400
sg17
g18
sg19
g18
sg20
S'/System/Library/Fonts/Apple Braille Outline 8 Dot.ttf'
p453
sg22
g23
sbag7
(g8
g9
NtRp454
(dp455
g12
g18
sg14
S'Estrangelo Edessa'
p456
sg16
I400
sg17
g18
sg19
g18
sg20
S'/opt/X11/share/fonts/OTF/SyrCOMEdessa.otf'
p457
sg22
g23
sbag7
(g8
g9
NtRp458
(dp459
g12
g18
sg14
S'Nadeem'
p460
sg16
I400
sg17
g18
sg19
g18
sg20
S'/Library/Fonts/Nadeem.ttf'
p461
sg22
g23
sbag7
(g8
g9
NtRp462
(dp463
g12
g18
sg14
S'Plantagenet Cherokee'
p464
sg16
I400
sg17
g18
sg19
g18
sg20
S'/Library/Fonts/PlantagenetCherokee.ttf'
p465
sg22
g23
sbag7
(g8
g9
NtRp466
(dp467
g12
g18
sg14
S'Luxi Serif'
p468
sg16
I400
sg17
g18
sg19
g18
sg20
S'/usr/X11R6/lib/X11/fonts/TTF/luxirr.ttf'
p469
sg22
g23
sbag7
(g8
g9
NtRp470
(dp471
g12
g18
sg14
S'Times New Roman'
p472
sg16
I700
sg17
g18
sg19
g18
sg20
S'/Library/Fonts/Times New Roman Bold.ttf'
p473
sg22
g23
sbag7
(g8
g9
NtRp474
(dp475
g12
g18
sg14
S'BiauKai'
p476
sg16
I400
sg17
g18
sg19
g18
sg20
S'/Library/Fonts/BiauKai.ttf'
p477
sg22
g23
sbag7
(g8
g9
NtRp478
(dp479
g12
g13
sg14
S'Arial'
p480
sg16
I700
sg17
g18
sg19
g18
sg20
S'/Library/Fonts/Arial Bold Italic.ttf'
p481
sg22
g23
sbag7
(g8
g9
NtRp482
(dp483
g12
g18
sg14
S'STIXVariants'
p484
sg16
I400
sg17
g18
sg19
g18
sg20
S'/Library/Fonts/STIXVar.otf'
p485
sg22
g23
sbag7
(g8
g9
NtRp486
(dp487
g12
g18
sg14
S'STIXVariants'
p488
sg16
I700
sg17
g18
sg19
g18
sg20
S'/Library/Fonts/STIXVarBol.otf'
p489
sg22
g23
sbag7
(g8
g9
NtRp490
(dp491
g12
g18
sg14
S'Serto Batnan'
p492
sg16
I700
sg17
g18
sg19
g18
sg20
S'/usr/X11/lib/X11/fonts/OTF/SyrCOMBatnanBold.otf'
p493
sg22
g23
sbag7
(g8
g9
NtRp494
(dp495
g12
g18
sg14
S'Hiragino Sans GB'
p496
sg16
I400
sg17
g18
sg19
g18
sg20
S'/Library/Fonts/Hiragino Sans GB W3.otf'
p497
sg22
g23
sbag7
(g8
g9
NtRp498
(dp499
g12
g18
sg14
S'Hiragino Kaku Gothic ProN'
p500
sg16
I700
sg17
g18
sg19
g18
sg20
S'/System/Library/Fonts/\xe3\x83\x92\xe3\x83\xa9\xe3\x82\xad\xe3\x82\x99\xe3\x83\x8e\xe8\xa7\x92\xe3\x82\xb3\xe3\x82\x99 ProN W6.otf'
p501
sg22
g23
sbag7
(g8
g9
NtRp502
(dp503
g12
g18
sg14
S'Hiragino Kaku Gothic StdN'
p504
sg16
I700
sg17
g18
sg19
g18
sg20
S'/Library/Fonts/\xe3\x83\x92\xe3\x83\xa9\xe3\x82\xad\xe3\x82\x99\xe3\x83\x8e\xe8\xa7\x92\xe3\x82\xb3\xe3\x82\x99 StdN W8.otf'
p505
sg22
g23
sbag7
(g8
g9
NtRp506
(dp507
g12
g18
sg14
S'Mshtakan'
p508
sg16
I700
sg17
g18
sg19
g18
sg20
S'/Library/Fonts/MshtakanBold.ttf'
p509
sg22
g23
sbag7
(g8
g9
NtRp510
(dp511
g12
g18
sg14
S'Serto Urhoy'
p512
sg16
I400
sg17
g18
sg19
g18
sg20
S'/opt/X11/share/fonts/OTF/SyrCOMUrhoy.otf'
p513
sg22
g23
sbag7
(g8
g9
NtRp514
(dp515
g12
g18
sg14
S'STIXIntegralsUp'
p516
sg16
I700
sg17
g18
sg19
g18
sg20
S'/Library/Fonts/STIXIntUpBol.otf'
p517
sg22
g23
sbag7
(g8
g9
NtRp518
(dp519
g12
g18
sg14
S'Al Bayan'
p520
sg16
I400
sg17
g18
sg19
g18
sg20
S'/Library/Fonts/AlBayan.ttf'
p521
sg22
g23
sbag7
(g8
g9
NtRp522
(dp523
g12
g18
sg14
S'STIXSizeFiveSym'
p524
sg16
I400
sg17
g18
sg19
g18
sg20
S'/Library/Fonts/STIXSizFiveSymReg.otf'
p525
sg22
g23
sbag7
(g8
g9
NtRp526
(dp527
g12
g18
sg14
S'Corsiva Hebrew'
p528
sg16
I700
sg17
g18
sg19
g18
sg20
S'/Library/Fonts/CorsivaBold.ttf'
p529
sg22
g23
sbag7
(g8
g9
NtRp530
(dp531
g12
g18
sg14
S'Luxi Sans'
p532
sg16
I700
sg17
g18
sg19
g18
sg20
S'/usr/X11/lib/X11/fonts/TTF/luxisb.ttf'
p533
sg22
g23
sbag7
(g8
g9
NtRp534
(dp535
g12
g18
sg14
S'Estrangelo Nisibin Outline'
p536
sg16
I400
sg17
g18
sg19
g18
sg20
S'/opt/X11/share/fonts/OTF/SyrCOMNisibinOutline.otf'
p537
sg22
g23
sbag7
(g8
g9
NtRp538
(dp539
g12
g18
sg14
S'Gurmukhi MT'
p540
sg16
I400
sg17
g18
sg19
g18
sg20
S'/Library/Fonts/Gurmukhi.ttf'
p541
sg22
g23
sbag7
(g8
g9
NtRp542
(dp543
g12
g18
sg14
S'Apple Color Emoji'
p544
sg16
I400
sg17
g18
sg19
g18
sg20
S'/System/Library/Fonts/Apple Color Emoji.ttf'
p545
sg22
g23
sbag7
(g8
g9
NtRp546
(dp547
g12
g18
sg14
S'Skia'
p548
sg16
I400
sg17
g18
sg19
g18
sg20
S'/Library/Fonts/Skia.ttf'
p549
sg22
g23
sbag7
(g8
g9
NtRp550
(dp551
g12
g18
sg14
S'STFangsong'
p552
sg16
I400
sg17
g18
sg19
g18
sg20
S'/Library/Fonts/\xe5\x8d\x8e\xe6\x96\x87\xe4\xbb\xbf\xe5\xae\x8b.ttf'
p553
sg22
g23
sbag7
(g8
g9
NtRp554
(dp555
g12
g13
sg14
S'Arial'
p556
sg16
I400
sg17
g18
sg19
g18
sg20
S'/Library/Fonts/Arial Italic.ttf'
p557
sg22
g23
sbag7
(g8
g9
NtRp558
(dp559
g12
g18
sg14
S'Hiragino Kaku Gothic Std'
p560
sg16
I700
sg17
g18
sg19
g18
sg20
S'/Library/Fonts/\xe3\x83\x92\xe3\x83\xa9\xe3\x82\xad\xe3\x82\x99\xe3\x83\x8e\xe8\xa7\x92\xe3\x82\xb3\xe3\x82\x99 Std W8.otf'
p561
sg22
g23
sbag7
(g8
g9
NtRp562
(dp563
g12
g18
sg14
S'LiSong Pro'
p564
sg16
I400
sg17
g18
sg19
g18
sg20
S'/Library/Fonts/\xe5\x84\xb7\xe5\xae\x8b Pro.ttf'
p565
sg22
g23
sbag7
(g8
g9
NtRp566
(dp567
g12
g18
sg14
S'Hiragino Maru Gothic Pro'
p568
sg16
I400
sg17
g18
sg19
g18
sg20
S'/Library/Fonts/\xe3\x83\x92\xe3\x83\xa9\xe3\x82\xad\xe3\x82\x99\xe3\x83\x8e\xe4\xb8\xb8\xe3\x82\xb3\xe3\x82\x99 Pro W4.otf'
p569
sg22
g23
sbag7
(g8
g9
NtRp570
(dp571
g12
g18
sg14
S'STIXGeneral'
p572
sg16
I700
sg17
g18
sg19
g18
sg20
S'/Library/Fonts/STIXGeneralBol.otf'
p573
sg22
g23
sbag7
(g8
g9
NtRp574
(dp575
g12
g13
sg14
S'STIXNonUnicode'
p576
sg16
I700
sg17
g18
sg19
g18
sg20
S'/Library/Fonts/STIXNonUniBolIta.otf'
p577
sg22
g23
sbag7
(g8
g9
NtRp578
(dp579
g12
g18
sg14
S'Apple Braille'
p580
sg16
I400
sg17
g18
sg19
g18
sg20
S'/System/Library/Fonts/Apple Braille Pinpoint 8 Dot.ttf'
p581
sg22
g23
sbag7
(g8
g9
NtRp582
(dp583
g12
g18
sg14
S'Luxi Serif'
p584
sg16
I700
sg17
g18
sg19
g18
sg20
S'/usr/X11R6/lib/X11/fonts/TTF/luxirb.ttf'
p585
sg22
g23
sbag7
(g8
g9
NtRp586
(dp587
g12
g13
sg14
S'Georgia'
p588
sg16
I400
sg17
g18
sg19
g18
sg20
S'/Library/Fonts/Georgia Italic.ttf'
p589
sg22
g23
sbag7
(g8
g9
NtRp590
(dp591
g12
g18
sg14
S'Apple Braille'
p592
sg16
I400
sg17
g18
sg19
g18
sg20
S'/System/Library/Fonts/Apple Braille Outline 6 Dot.ttf'
p593
sg22
g23
sbag7
(g8
g9
NtRp594
(dp595
g12
g18
sg14
S'Chalkduster'
p596
sg16
I400
sg17
g18
sg19
g18
sg20
S'/Library/Fonts/Chalkduster.ttf'
p597
sg22
g23
sbag7
(g8
g9
NtRp598
(dp599
g12
g13
sg14
S'Courier New'
p600
sg16
I700
sg17
g18
sg19
g18
sg20
S'/Library/Fonts/Courier New Bold Italic.ttf'
p601
sg22
g23
sbag7
(g8
g9
NtRp602
(dp603
g12
g18
sg14
S'Raanana'
p604
sg16
I700
sg17
g18
sg19
g18
sg20
S'/Library/Fonts/RaananaBold.ttf'
p605
sg22
g23
sbag7
(g8
g9
NtRp606
(dp607
g12
g13
sg14
S'New Peninim MT'
p608
sg16
I400
sg17
g18
sg19
g18
sg20
S'/Library/Fonts/NewPeninimMTInclined.ttf'
p609
sg22
g23
sbag7
(g8
g9
NtRp610
(dp611
g12
g18
sg14
S'Arial Rounded MT Bold'
p612
sg16
I700
sg17
g18
sg19
g18
sg20
S'/Library/Fonts/Arial Rounded Bold.ttf'
p613
sg22
g23
sbag7
(g8
g9
NtRp614
(dp615
g12
g18
sg14
S'Devanagari MT'
p616
sg16
I700
sg17
g18
sg19
g18
sg20
S'/Library/Fonts/DevanagariMTBold.ttf'
p617
sg22
g23
sbag7
(g8
g9
NtRp618
(dp619
g12
g18
sg14
S'Thonburi'
p620
sg16
I700
sg17
g18
sg19
g18
sg20
S'/System/Library/Fonts/ThonburiBold.ttf'
p621
sg22
g23
sbag7
(g8
g9
NtRp622
(dp623
g12
g18
sg14
S'Estrangelo Antioch'
p624
sg16
I400
sg17
g18
sg19
g18
sg20
S'/opt/X11/share/fonts/OTF/SyrCOMAntioch.otf'
p625
sg22
g23
sbag7
(g8
g9
NtRp626
(dp627
g12
g18
sg14
S'PCMyungjo'
p628
sg16
I400
sg17
g18
sg19
g18
sg20
S'/Library/Fonts/PCmyoungjo.ttf'
p629
sg22
g23
sbag7
(g8
g9
NtRp630
(dp631
g12
g18
sg14
S'LastResort'
p632
sg16
I400
sg17
g18
sg19
g18
sg20
S'/System/Library/Fonts/LastResort.ttf'
p633
sg22
g23
sbag7
(g8
g9
NtRp634
(dp635
g12
g18
sg14
S'Apple SD Gothic Neo'
p636
sg16
I200
sg17
g18
sg19
g18
sg20
S'/Library/Fonts/AppleSDGothicNeo-Light.otf'
p637
sg22
g23
sbag7
(g8
g9
NtRp638
(dp639
g12
g13
sg14
S'Verdana'
p640
sg16
I700
sg17
g18
sg19
g18
sg20
S'/Library/Fonts/Verdana Bold Italic.ttf'
p641
sg22
g23
sbag7
(g8
g9
NtRp642
(dp643
g12
g18
sg14
S'Yuppy TC'
p644
sg16
I400
sg17
g18
sg19
g18
sg20
S'/Library/Fonts/\xe9\x9b\x85\xe7\x97\x9e-\xe7\xb9\x81.otf'
p645
sg22
g23
sbag7
(g8
g9
NtRp646
(dp647
g12
g18
sg14
S'Hiragino Sans GB'
p648
sg16
I700
sg17
g18
sg19
g18
sg20
S'/Library/Fonts/Hiragino Sans GB W6.otf'
p649
sg22
g23
sbag7
(g8
g9
NtRp650
(dp651
g12
g18
sg14
S'Kailasa'
p652
sg16
I400
sg17
g18
sg19
g18
sg20
S'/Library/Fonts/Kailasa.ttf'
p653
sg22
g23
sbag7
(g8
g9
NtRp654
(dp655
g12
g18
sg14
S'STIXIntegralsSm'
p656
sg16
I400
sg17
g18
sg19
g18
sg20
S'/Library/Fonts/STIXIntSmReg.otf'
p657
sg22
g23
sbag7
(g8
g9
NtRp658
(dp659
g12
g18
sg14
S'Apple SD Gothic Neo'
p660
sg16
I400
sg17
g18
sg19
g18
sg20
S'/Library/Fonts/AppleSDGothicNeo-Thin.otf'
p661
sg22
g23
sbag7
(g8
g9
NtRp662
(dp663
g12
g18
sg14
S'Kokonor'
p664
sg16
I400
sg17
g18
sg19
g18
sg20
S'/Library/Fonts/Kokonor.ttf'
p665
sg22
g23
sbag7
(g8
g9
NtRp666
(dp667
g12
g18
sg14
S'Geeza Pro'
p668
sg16
I700
sg17
g18
sg19
g18
sg20
S'/System/Library/Fonts/Geeza Pro Bold.ttf'
p669
sg22
g23
sbag7
(g8
g9
NtRp670
(dp671
g12
g13
sg14
S'Verdana'
p672
sg16
I400
sg17
g18
sg19
g18
sg20
S'/Library/Fonts/Verdana Italic.ttf'
p673
sg22
g23
sbag7
(g8
g9
NtRp674
(dp675
g12
g18
sg14
S'Devanagari MT'
p676
sg16
I400
sg17
g18
sg19
g18
sg20
S'/Library/Fonts/DevanagariMT.ttf'
p677
sg22
g23
sbag7
(g8
g9
NtRp678
(dp679
g12
g18
sg14
S'Apple Braille'
p680
sg16
I400
sg17
g18
sg19
g18
sg20
S'/System/Library/Fonts/Apple Braille.ttf'
p681
sg22
g23
sbag7
(g8
g9
NtRp682
(dp683
g12
g18
sg14
S'Hiragino Mincho Pro'
p684
sg16
I700
sg17
g18
sg19
g18
sg20
S'/Library/Fonts/\xe3\x83\x92\xe3\x83\xa9\xe3\x82\xad\xe3\x82\x99\xe3\x83\x8e\xe6\x98\x8e\xe6\x9c\x9d Pro W6.otf'
p685
sg22
g23
sbag7
(g8
g9
NtRp686
(dp687
g12
g18
sg14
S'InaiMathi'
p688
sg16
I400
sg17
g18
sg19
g18
sg20
S'/Library/Fonts/InaiMathi.ttf'
p689
sg22
g23
sbag7
(g8
g9
NtRp690
(dp691
g12
g18
sg14
S'STIXNonUnicode'
p692
sg16
I400
sg17
g18
sg19
g18
sg20
S'/Library/Fonts/STIXNonUni.otf'
p693
sg22
g23
sbag7
(g8
g9
NtRp694
(dp695
g12
g18
sg14
S'STIXIntegralsD'
p696
sg16
I400
sg17
g18
sg19
g18
sg20
S'/Library/Fonts/STIXIntDReg.otf'
p697
sg22
g23
sbag7
(g8
g9
NtRp698
(dp699
g12
g13
sg14
S'STIXNonUnicode'
p700
sg16
I400
sg17
g18
sg19
g18
sg20
S'/Library/Fonts/STIXNonUniIta.otf'
p701
sg22
g23
sbag7
(g8
g9
NtRp702
(dp703
g12
g18
sg14
S'Baghdad'
p704
sg16
I400
sg17
g18
sg19
g18
sg20
S'/Library/Fonts/Baghdad.ttf'
p705
sg22
g23
sbag7
(g8
g9
NtRp706
(dp707
g12
g18
sg14
S'STIXIntegralsUp'
p708
sg16
I400
sg17
g18
sg19
g18
sg20
S'/Library/Fonts/STIXIntUpReg.otf'
p709
sg22
g23
sbag7
(g8
g9
NtRp710
(dp711
g12
g18
sg14
S'Comic Sans MS'
p712
sg16
I700
sg17
g18
sg19
g18
sg20
S'/Library/Fonts/Comic Sans MS Bold.ttf'
p713
sg22
g23
sbag7
(g8
g9
NtRp714
(dp715
g12
g18
sg14
S'Trebuchet MS'
p716
sg16
I400
sg17
g18
sg19
g18
sg20
S'/Library/Fonts/Trebuchet MS.ttf'
p717
sg22
g23
sbag7
(g8
g9
NtRp718
(dp719
g12
g18
sg14
S'Courier New'
p720
sg16
I700
sg17
g18
sg19
g18
sg20
S'/Library/Fonts/Courier New Bold.ttf'
p721
sg22
g23
sbag7
(g8
g9
NtRp722
(dp723
g12
g18
sg14
S'Big Caslon'
p724
sg16
I500
sg17
g18
sg19
g18
sg20
S'/Library/Fonts/BigCaslon.ttf'
p725
sg22
g23
sbag7
(g8
g9
NtRp726
(dp727
g12
g13
sg14
S'Serto Jerusalem'
p728
sg16
I400
sg17
g18
sg19
g18
sg20
S'/opt/X11/share/fonts/OTF/SyrCOMJerusalemItalic.otf'
p729
sg22
g23
sbag7
(g8
g9
NtRp730
(dp731
g12
g18
sg14
S'Ayuthaya'
p732
sg16
I400
sg17
g18
sg19
g18
sg20
S'/Library/Fonts/Ayuthaya.ttf'
p733
sg22
g23
sbag7
(g8
g9
NtRp734
(dp735
g12
g18
sg14
S'Apple SD Gothic Neo'
p736
sg16
I700
sg17
g18
sg19
g18
sg20
S'/Library/Fonts/AppleSDGothicNeo-SemiBold.otf'
p737
sg22
g23
sbag7
(g8
g9
NtRp738
(dp739
g12
g18
sg14
S'Herculanum'
p740
sg16
I400
sg17
g18
sg19
g18
sg20
S'/Library/Fonts/Herculanum.ttf'
p741
sg22
g23
sbag7
(g8
g9
NtRp742
(dp743
g12
g18
sg14
S'DecoType Naskh'
p744
sg16
I400
sg17
g18
sg19
g18
sg20
S'/Library/Fonts/DecoTypeNaskh.ttf'
p745
sg22
g23
sbag7
(g8
g9
NtRp746
(dp747
g12
g18
sg14
S'Apple Braille'
p748
sg16
I400
sg17
g18
sg19
g18
sg20
S'/System/Library/Fonts/Apple Braille Pinpoint 6 Dot.ttf'
p749
sg22
g23
sbag7
(g8
g9
NtRp750
(dp751
g12
g18
sg14
S'Hiragino Kaku Gothic Pro'
p752
sg16
I700
sg17
g18
sg19
g18
sg20
S'/Library/Fonts/\xe3\x83\x92\xe3\x83\xa9\xe3\x82\xad\xe3\x82\x99\xe3\x83\x8e\xe8\xa7\x92\xe3\x82\xb3\xe3\x82\x99 Pro W6.otf'
p753
sg22
g23
sbag7
(g8
g9
NtRp754
(dp755
g12
g18
sg14
S'Symbol'
p756
sg16
I400
sg17
g18
sg19
g18
sg20
S'/System/Library/Fonts/Symbol.ttf'
p757
sg22
g23
sbag7
(g8
g9
NtRp758
(dp759
g12
g13
sg14
S'Trebuchet MS'
p760
sg16
I700
sg17
g18
sg19
g18
sg20
S'/Library/Fonts/Trebuchet MS Bold Italic.ttf'
p761
sg22
g23
sbag7
(g8
g9
NtRp762
(dp763
g12
g18
sg14
S'Apple SD Gothic Neo'
p764
sg16
I400
sg17
g18
sg19
g18
sg20
S'/System/Library/Fonts/AppleSDGothicNeo-Regular.otf'
p765
sg22
g23
sbag7
(g8
g9
NtRp766
(dp767
g12
g18
sg14
S'Serto Malankara'
p768
sg16
I400
sg17
g18
sg19
g18
sg20
S'/usr/X11/lib/X11/fonts/OTF/SyrCOMMalankara.otf'
p769
sg22
g23
sbag7
(g8
g9
NtRp770
(dp771
g12
g18
sg14
S'Al Bayan'
p772
sg16
I700
sg17
g18
sg19
g18
sg20
S'/Library/Fonts/AlBayanBold.ttf'
p773
sg22
g23
sbag7
(g8
g9
NtRp774
(dp775
g12
g18
sg14
S'Wingdings 2'
p776
sg16
I400
sg17
g18
sg19
g18
sg20
S'/Library/Fonts/Wingdings 2.ttf'
p777
sg22
g23
sbag7
(g8
g9
NtRp778
(dp779
g12
g18
sg14
S'HeadLineA'
p780
sg16
I400
sg17
g18
sg19
g18
sg20
S'/Library/Fonts/HeadlineA.ttf'
p781
sg22
g23
sbag7
(g8
g9
NtRp782
(dp783
g12
g18
sg14
S'Tahoma'
p784
sg16
I400
sg17
g18
sg19
g18
sg20
S'/Library/Fonts/Tahoma.ttf'
p785
sg22
g23
sbag7
(g8
g9
NtRp786
(dp787
g12
g13
sg14
S'Brush Script MT'
p788
sg16
I400
sg17
g18
sg19
g18
sg20
S'/Library/Fonts/Brush Script.ttf'
p789
sg22
g23
sbag7
(g8
g9
NtRp790
(dp791
g12
g18
sg14
S'Arial Hebrew'
p792
sg16
I700
sg17
g18
sg19
g18
sg20
S'/Library/Fonts/ArialHBBold.ttf'
p793
sg22
g23
sbag7
(g8
g9
NtRp794
(dp795
g12
g18
sg14
S'.Keyboard'
p796
sg16
I400
sg17
g18
sg19
g18
sg20
S'/System/Library/Fonts/Keyboard.ttf'
p797
sg22
g23
sbag7
(g8
g9
NtRp798
(dp799
g12
g18
sg14
S'Hiragino Maru Gothic ProN'
p800
sg16
I400
sg17
g18
sg19
g18
sg20
S'/Library/Fonts/\xe3\x83\x92\xe3\x83\xa9\xe3\x82\xad\xe3\x82\x99\xe3\x83\x8e\xe4\xb8\xb8\xe3\x82\xb3\xe3\x82\x99 ProN W4.otf'
p801
sg22
g23
sbag7
(g8
g9
NtRp802
(dp803
g12
g18
sg14
S'STIXSizeOneSym'
p804
sg16
I400
sg17
g18
sg19
g18
sg20
S'/Library/Fonts/STIXSizOneSymReg.otf'
p805
sg22
g23
sbag7
(g8
g9
NtRp806
(dp807
g12
g18
sg14
S'STIXIntegralsUpSm'
p808
sg16
I400
sg17
g18
sg19
g18
sg20
S'/Library/Fonts/STIXIntUpSmReg.otf'
p809
sg22
g23
sbag7
(g8
g9
NtRp810
(dp811
g12
g18
sg14
S'Andale Mono'
p812
sg16
I400
sg17
g18
sg19
g18
sg20
S'/Library/Fonts/Andale Mono.ttf'
p813
sg22
g23
sbag7
(g8
g9
NtRp814
(dp815
g12
g18
sg14
S'Geeza Pro'
p816
sg16
I400
sg17
g18
sg19
g18
sg20
S'/System/Library/Fonts/Geeza Pro.ttf'
p817
sg22
g23
sbag7
(g8
g9
NtRp818
(dp819
g12
g18
sg14
S'Khmer Sangam MN'
p820
sg16
I400
sg17
g18
sg19
g18
sg20
S'/Library/Fonts/Khmer Sangam MN.ttf'
p821
sg22
g23
sbag7
(g8
g9
NtRp822
(dp823
g12
g18
sg14
S'Microsoft Sans Serif'
p824
sg16
I400
sg17
g18
sg19
g18
sg20
S'/Library/Fonts/Microsoft Sans Serif.ttf'
p825
sg22
g23
sbag7
(g8
g9
NtRp826
(dp827
g12
g18
sg14
S'STIXIntegralsUpD'
p828
sg16
I700
sg17
g18
sg19
g18
sg20
S'/Library/Fonts/STIXIntUpDBol.otf'
p829
sg22
g23
sbag7
(g8
g9
NtRp830
(dp831
g12
g18
sg14
S'Kai'
p832
sg16
I400
sg17
g18
sg19
g18
sg20
S'/Library/Fonts/Kai.ttf'
p833
sg22
g23
sbag7
(g8
g9
NtRp834
(dp835
g12
g18
sg14
S'STIXGeneral'
p836
sg16
I400
sg17
g18
sg19
g18
sg20
S'/Library/Fonts/STIXGeneral.otf'
p837
sg22
g23
sbag7
(g8
g9
NtRp838
(dp839
g12
g13
sg14
S'Courier New'
p840
sg16
I400
sg17
g18
sg19
g18
sg20
S'/Library/Fonts/Courier New Italic.ttf'
p841
sg22
g23
sbag7
(g8
g9
NtRp842
(dp843
g12
g18
sg14
S'Arial Black'
p844
sg16
I900
sg17
g18
sg19
g18
sg20
S'/Library/Fonts/Arial Black.ttf'
p845
sg22
g23
sbag7
(g8
g9
NtRp846
(dp847
g12
g13
sg14
S'STIXGeneral'
p848
sg16
I400
sg17
g18
sg19
g18
sg20
S'/Library/Fonts/STIXGeneralItalic.otf'
p849
sg22
g23
sbag7
(g8
g9
NtRp850
(dp851
g12
g18
sg14
S'Silom'
p852
sg16
I400
sg17
g18
sg19
g18
sg20
S'/Library/Fonts/Silom.ttf'
p853
sg22
g23
sbag7
(g8
g9
NtRp854
(dp855
g12
g18
sg14
S'Yuppy SC'
p856
sg16
I400
sg17
g18
sg19
g18
sg20
S'/Library/Fonts/\xe9\x9b\x85\xe7\x97\x9e-\xe7\xae\x80.otf'
p857
sg22
g23
sbag7
(g8
g9
NtRp858
(dp859
g12
g74
sg14
S'Mshtakan'
p860
sg16
I700
sg17
g18
sg19
g18
sg20
S'/Library/Fonts/MshtakanBoldOblique.ttf'
p861
sg22
g23
sbag7
(g8
g9
NtRp862
(dp863
g12
g18
sg14
S'STHeiti'
p864
sg16
I400
sg17
g18
sg19
g18
sg20
S'/Library/Fonts/\xe5\x8d\x8e\xe6\x96\x87\xe7\xbb\x86\xe9\xbb\x91.ttf'
p865
sg22
g23
sbag7
(g8
g9
NtRp866
(dp867
g12
g18
sg14
S'STIXSizeFourSym'
p868
sg16
I400
sg17
g18
sg19
g18
sg20
S'/Library/Fonts/STIXSizFourSymReg.otf'
p869
sg22
g23
sbag7
(g8
g9
NtRp870
(dp871
g12
g18
sg14
S'STHeiti'
p872
sg16
I400
sg17
g18
sg19
g18
sg20
S'/Library/Fonts/\xe5\x8d\x8e\xe6\x96\x87\xe9\xbb\x91\xe4\xbd\x93.ttf'
p873
sg22
g23
sbag7
(g8
g9
NtRp874
(dp875
g12
g18
sg14
S'Apple Chancery'
p876
sg16
I400
sg17
g18
sg19
g18
sg20
S'/Library/Fonts/Apple Chancery.ttf'
p877
sg22
g23
sbag7
(g8
g9
NtRp878
(dp879
g12
g18
sg14
S'Thonburi'
p880
sg16
I400
sg17
g18
sg19
g18
sg20
S'/System/Library/Fonts/Thonburi.ttf'
p881
sg22
g23
sbag7
(g8
g9
NtRp882
(dp883
g12
g18
sg14
S'Wingdings 3'
p884
sg16
I400
sg17
g18
sg19
g18
sg20
S'/Library/Fonts/Wingdings 3.ttf'
p885
sg22
g23
sbag7
(g8
g9
NtRp886
(dp887
g12
g13
sg14
S'STIXGeneral'
p888
sg16
I700
sg17
g18
sg19
g18
sg20
S'/Library/Fonts/STIXGeneralBolIta.otf'
p889
sg22
g23
sbag7
(g8
g9
NtRp890
(dp891
g12
g18
sg14
S'Arial Hebrew'
p892
sg16
I400
sg17
g18
sg19
g18
sg20
S'/Library/Fonts/ArialHB.ttf'
p893
sg22
g23
sbag7
(g8
g9
NtRp894
(dp895
g12
g18
sg14
S'STIXIntegralsUpSm'
p896
sg16
I700
sg17
g18
sg19
g18
sg20
S'/Library/Fonts/STIXIntUpSmBol.otf'
p897
sg22
g23
sbag7
(g8
g9
NtRp898
(dp899
g12
g18
sg14
S'Lao Sangam MN'
p900
sg16
I400
sg17
g18
sg19
g18
sg20
S'/Library/Fonts/Lao Sangam MN.ttf'
p901
sg22
g23
sbag7
(g8
g9
NtRp902
(dp903
g12
g18
sg14
S'KufiStandardGK'
p904
sg16
I400
sg17
g18
sg19
g18
sg20
S'/Library/Fonts/KufiStandardGK.ttf'
p905
sg22
g23
sbag7
(g8
g9
NtRp906
(dp907
g12
g18
sg14
S'STIXSizeOneSym'
p908
sg16
I700
sg17
g18
sg19
g18
sg20
S'/Library/Fonts/STIXSizOneSymBol.otf'
p909
sg22
g23
sbag7
(g8
g9
NtRp910
(dp911
g12
g18
sg14
S'Comic Sans MS'
p912
sg16
I400
sg17
g18
sg19
g18
sg20
S'/Library/Fonts/Comic Sans MS.ttf'
p913
sg22
g23
sbag7
(g8
g9
NtRp914
(dp915
g12
g18
sg14
S'STIXSizeTwoSym'
p916
sg16
I400
sg17
g18
sg19
g18
sg20
S'/Library/Fonts/STIXSizTwoSymReg.otf'
p917
sg22
g23
sbag7
(g8
g9
NtRp918
(dp919
g12
g18
sg14
S'Hei'
p920
sg16
I400
sg17
g18
sg19
g18
sg20
S'/Library/Fonts/Hei.ttf'
p921
sg22
g23
sbag7
(g8
g9
NtRp922
(dp923
g12
g18
sg14
S'STIXSizeFourSym'
p924
sg16
I700
sg17
g18
sg19
g18
sg20
S'/Library/Fonts/STIXSizFourSymBol.otf'
p925
sg22
g23
sbag7
(g8
g9
NtRp926
(dp927
g12
g18
sg14
S'Apple LiGothic'
p928
sg16
I500
sg17
g18
sg19
g18
sg20
S'/Library/Fonts/Apple LiGothic Medium.ttf'
p929
sg22
g23
sbag7
(g8
g9
NtRp930
(dp931
g12
g18
sg14
S'New Peninim MT'
p932
sg16
I700
sg17
g18
sg19
g18
sg20
S'/Library/Fonts/NewPeninimMTBold.ttf'
p933
sg22
g23
sbag7
(g8
g9
NtRp934
(dp935
g12
g18
sg14
S'Arial'
p936
sg16
I700
sg17
g18
sg19
g18
sg20
S'/Library/Fonts/Arial Bold.ttf'
p937
sg22
g23
sbag7
(g8
g9
NtRp938
(dp939
g12
g18
sg14
S'Georgia'
p940
sg16
I700
sg17
g18
sg19
g18
sg20
S'/Library/Fonts/Georgia Bold.ttf'
p941
sg22
g23
sbag7
(g8
g9
NtRp942
(dp943
g12
g18
sg14
S'Hiragino Mincho ProN'
p944
sg16
I400
sg17
g18
sg19
g18
sg20
S'/System/Library/Fonts/\xe3\x83\x92\xe3\x83\xa9\xe3\x82\xad\xe3\x82\x99\xe3\x83\x8e\xe6\x98\x8e\xe6\x9c\x9d ProN W3.otf'
p945
sg22
g23
sbag7
(g8
g9
NtRp946
(dp947
g12
g18
sg14
S'Osaka'
p948
sg16
I400
sg17
g18
sg19
g18
sg20
S'/Library/Fonts/OsakaMono.ttf'
p949
sg22
g23
sbag7
(g8
g9
NtRp950
(dp951
g12
g18
sg14
S'GungSeo'
p952
sg16
I400
sg17
g18
sg19
g18
sg20
S'/Library/Fonts/Gungseouche.ttf'
p953
sg22
g23
sbag7
(g8
g9
NtRp954
(dp955
g12
g18
sg14
S'STIXSizeTwoSym'
p956
sg16
I700
sg17
g18
sg19
g18
sg20
S'/Library/Fonts/STIXSizTwoSymBol.otf'
p957
sg22
g23
sbag7
(g8
g9
NtRp958
(dp959
g12
g18
sg14
S'Wingdings'
p960
sg16
I400
sg17
g18
sg19
g18
sg20
S'/Library/Fonts/Wingdings.ttf'
p961
sg22
g23
sbag7
(g8
g9
NtRp962
(dp963
g12
g18
sg14
S'Impact'
p964
sg16
I400
sg17
g18
sg19
g18
sg20
S'/Library/Fonts/Impact.ttf'
p965
sg22
g23
sbag7
(g8
g9
NtRp966
(dp967
g12
g18
sg14
S'Tahoma'
p968
sg16
I700
sg17
g18
sg19
g18
sg20
S'/Library/Fonts/Tahoma Bold.ttf'
p969
sg22
g23
sbag7
(g8
g9
NtRp970
(dp971
g12
g18
sg14
S'STIXNonUnicode'
p972
sg16
I700
sg17
g18
sg19
g18
sg20
S'/Library/Fonts/STIXNonUniBol.otf'
p973
sg22
g23
sbag7
(g8
g9
NtRp974
(dp975
g12
g13
sg14
S'Georgia'
p976
sg16
I700
sg17
g18
sg19
g18
sg20
S'/Library/Fonts/Georgia Bold Italic.ttf'
p977
sg22
g23
sbag7
(g8
g9
NtRp978
(dp979
g12
g18
sg14
S'STIXIntegralsUpD'
p980
sg16
I400
sg17
g18
sg19
g18
sg20
S'/Library/Fonts/STIXIntUpDReg.otf'
p981
sg22
g23
sbag7
(g8
g9
NtRp982
(dp983
g12
g18
sg14
S'Sathu'
p984
sg16
I400
sg17
g18
sg19
g18
sg20
S'/Library/Fonts/Sathu.ttf'
p985
sg22
g23
sbag7
(g8
g9
NtRp986
(dp987
g12
g18
sg14
S'Gujarati MT'
p988
sg16
I400
sg17
g18
sg19
g18
sg20
S'/Library/Fonts/GujaratiMT.ttf'
p989
sg22
g23
sbag7
(g8
g9
NtRp990
(dp991
g12
g18
sg14
S'Apple SD Gothic Neo'
p992
sg16
I500
sg17
g18
sg19
g18
sg20
S'/Library/Fonts/AppleSDGothicNeo-Medium.otf'
p993
sg22
g23
sbasS'defaultFamily'
p994
(dp995
S'afm'
p996
S'Helvetica'
p997
sS'ttf'
p998
S'Bitstream Vera Sans'
p999
ssS'ttffiles'
p1000
(lp1001
S'/opt/local/Library/Frameworks/Python.framework/Versions/2.7/lib/python2.7/site-packages/matplotlib/mpl-data/fonts/ttf/STIXGeneralBolIta.ttf'
p1002
aS'/opt/local/Library/Frameworks/Python.framework/Versions/2.7/lib/python2.7/site-packages/matplotlib/mpl-data/fonts/ttf/VeraBd.ttf'
p1003
aS'/opt/local/Library/Frameworks/Python.framework/Versions/2.7/lib/python2.7/site-packages/matplotlib/mpl-data/fonts/ttf/STIXNonUniBol.ttf'
p1004
aS'/opt/local/Library/Frameworks/Python.framework/Versions/2.7/lib/python2.7/site-packages/matplotlib/mpl-data/fonts/ttf/STIXGeneral.ttf'
p1005
aS'/opt/local/Library/Frameworks/Python.framework/Versions/2.7/lib/python2.7/site-packages/matplotlib/mpl-data/fonts/ttf/cmsy10.ttf'
p1006
aS'/opt/local/Library/Frameworks/Python.framework/Versions/2.7/lib/python2.7/site-packages/matplotlib/mpl-data/fonts/ttf/STIXSizTwoSymBol.ttf'
p1007
aS'/opt/local/Library/Frameworks/Python.framework/Versions/2.7/lib/python2.7/site-packages/matplotlib/mpl-data/fonts/ttf/cmss10.ttf'
p1008
aS'/opt/local/Library/Frameworks/Python.framework/Versions/2.7/lib/python2.7/site-packages/matplotlib/mpl-data/fonts/ttf/cmtt10.ttf'
p1009
aS'/opt/local/Library/Frameworks/Python.framework/Versions/2.7/lib/python2.7/site-packages/matplotlib/mpl-data/fonts/ttf/STIXSizThreeSymBol.ttf'
p1010
aS'/opt/local/Library/Frameworks/Python.framework/Versions/2.7/lib/python2.7/site-packages/matplotlib/mpl-data/fonts/ttf/STIXSizFourSymReg.ttf'
p1011
aS'/opt/local/Library/Frameworks/Python.framework/Versions/2.7/lib/python2.7/site-packages/matplotlib/mpl-data/fonts/ttf/STIXNonUniBolIta.ttf'
p1012
aS'/opt/local/Library/Frameworks/Python.framework/Versions/2.7/lib/python2.7/site-packages/matplotlib/mpl-data/fonts/ttf/STIXSizOneSymBol.ttf'
p1013
aS'/opt/local/Library/Frameworks/Python.framework/Versions/2.7/lib/python2.7/site-packages/matplotlib/mpl-data/fonts/ttf/STIXGeneralItalic.ttf'
p1014
aS'/opt/local/Library/Frameworks/Python.framework/Versions/2.7/lib/python2.7/site-packages/matplotlib/mpl-data/fonts/ttf/VeraBI.ttf'
p1015
aS'/opt/local/Library/Frameworks/Python.framework/Versions/2.7/lib/python2.7/site-packages/matplotlib/mpl-data/fonts/ttf/cmex10.ttf'
p1016
aS'/opt/local/Library/Frameworks/Python.framework/Versions/2.7/lib/python2.7/site-packages/matplotlib/mpl-data/fonts/ttf/STIXSizFourSymBol.ttf'
p1017
aS'/opt/local/Library/Frameworks/Python.framework/Versions/2.7/lib/python2.7/site-packages/matplotlib/mpl-data/fonts/ttf/VeraMoBI.ttf'
p1018
aS'/opt/local/Library/Frameworks/Python.framework/Versions/2.7/lib/python2.7/site-packages/matplotlib/mpl-data/fonts/ttf/STIXSizOneSymReg.ttf'
p1019
aS'/opt/local/Library/Frameworks/Python.framework/Versions/2.7/lib/python2.7/site-packages/matplotlib/mpl-data/fonts/ttf/STIXNonUniIta.ttf'
p1020
aS'/opt/local/Library/Frameworks/Python.framework/Versions/2.7/lib/python2.7/site-packages/matplotlib/mpl-data/fonts/ttf/VeraMoIt.ttf'
p1021
aS'/opt/local/Library/Frameworks/Python.framework/Versions/2.7/lib/python2.7/site-packages/matplotlib/mpl-data/fonts/ttf/VeraMono.ttf'
p1022
aS'/opt/local/Library/Frameworks/Python.framework/Versions/2.7/lib/python2.7/site-packages/matplotlib/mpl-data/fonts/ttf/STIXNonUni.ttf'
p1023
aS'/opt/local/Library/Frameworks/Python.framework/Versions/2.7/lib/python2.7/site-packages/matplotlib/mpl-data/fonts/ttf/Vera.ttf'
p1024
aS'/opt/local/Library/Frameworks/Python.framework/Versions/2.7/lib/python2.7/site-packages/matplotlib/mpl-data/fonts/ttf/STIXSizTwoSymReg.ttf'
p1025
aS'/opt/local/Library/Frameworks/Python.framework/Versions/2.7/lib/python2.7/site-packages/matplotlib/mpl-data/fonts/ttf/VeraSe.ttf'
p1026
aS'/opt/local/Library/Frameworks/Python.framework/Versions/2.7/lib/python2.7/site-packages/matplotlib/mpl-data/fonts/ttf/cmmi10.ttf'
p1027
aS'/opt/local/Library/Frameworks/Python.framework/Versions/2.7/lib/python2.7/site-packages/matplotlib/mpl-data/fonts/ttf/STIXGeneralBol.ttf'
p1028
aS'/opt/local/Library/Frameworks/Python.framework/Versions/2.7/lib/python2.7/site-packages/matplotlib/mpl-data/fonts/ttf/VeraIt.ttf'
p1029
aS'/opt/local/Library/Frameworks/Python.framework/Versions/2.7/lib/python2.7/site-packages/matplotlib/mpl-data/fonts/ttf/STIXSizThreeSymReg.ttf'
p1030
aS'/opt/local/Library/Frameworks/Python.framework/Versions/2.7/lib/python2.7/site-packages/matplotlib/mpl-data/fonts/ttf/VeraSeBd.ttf'
p1031
aS'/opt/local/Library/Frameworks/Python.framework/Versions/2.7/lib/python2.7/site-packages/matplotlib/mpl-data/fonts/ttf/cmr10.ttf'
p1032
aS'/opt/local/Library/Frameworks/Python.framework/Versions/2.7/lib/python2.7/site-packages/matplotlib/mpl-data/fonts/ttf/cmb10.ttf'
p1033
aS'/opt/local/Library/Frameworks/Python.framework/Versions/2.7/lib/python2.7/site-packages/matplotlib/mpl-data/fonts/ttf/VeraMoBd.ttf'
p1034
aS'/opt/local/Library/Frameworks/Python.framework/Versions/2.7/lib/python2.7/site-packages/matplotlib/mpl-data/fonts/ttf/STIXSizFiveSymReg.ttf'
p1035
aS'/usr/X11R6/lib/X11/fonts/OTF/SyrCOMMardinBold.otf'
p1036
aS'/Library/Fonts/Trebuchet MS Italic.ttf'
p1037
aS'/usr/X11R6/lib/X11/fonts/TTF/VeraBd.ttf'
p1038
aS'/Library/Fonts/Hoefler Text Ornaments.ttf'
p1039
aS'/Library/Fonts/NewPeninimMTBoldInclined.ttf'
p1040
aS'/Library/Fonts/MshtakanRegular.ttf'
p1041
aS'/usr/X11R6/lib/X11/fonts/TTF/VeraBI.ttf'
p1042
aS'/System/Library/Fonts/\xe3\x83\x92\xe3\x83\xa9\xe3\x82\xad\xe3\x82\x99\xe3\x83\x8e\xe6\x98\x8e\xe6\x9c\x9d ProN W6.otf'
p1043
aS'/Library/Fonts/Osaka.ttf'
p1044
aS'/usr/X11/lib/X11/fonts/TTF/luximri.ttf'
p1045
aS'/Library/Fonts/Verdana Bold.ttf'
p1046
aS'/Library/Fonts/AppleSDGothicNeo-UltraLight.otf'
p1047
aS'/opt/X11/share/fonts/TTF/luxisbi.ttf'
p1048
aS'/Library/Fonts/\xe5\x84\xb7\xe9\xbb\x91 Pro.ttf'
p1049
aS'/Library/Fonts/Arial Unicode.ttf'
p1050
aS'/usr/X11/lib/X11/fonts/TTF/VeraSe.ttf'
p1051
aS'/Library/Fonts/STIXSizThreeSymReg.otf'
p1052
aS'/usr/X11R6/lib/X11/fonts/TTF/VeraMoBI.ttf'
p1053
aS'/usr/X11/lib/X11/fonts/TTF/luxisri.ttf'
p1054
aS'/usr/X11R6/lib/X11/fonts/TTF/Vera.ttf'
p1055
aS'/usr/X11/lib/X11/fonts/OTF/SyrCOMNisibin.otf'
p1056
aS'/usr/X11R6/lib/X11/fonts/OTF/SyrCOMTalada.otf'
p1057
aS'/usr/X11R6/lib/X11/fonts/TTF/luxirri.ttf'
p1058
aS'/usr/X11R6/lib/X11/fonts/OTF/SyrCOMKharput.otf'
p1059
aS'/Library/Fonts/NewPeninimMT.ttf'
p1060
aS'/Library/Fonts/Times New Roman.ttf'
p1061
aS'/Library/Fonts/AppleSDGothicNeo-Heavy.otf'
p1062
aS'/Library/Fonts/Arial.ttf'
p1063
aS'/Library/Fonts/Raanana.ttf'
p1064
aS'/Library/Fonts/AppleGothic.ttf'
p1065
aS'/usr/X11R6/lib/X11/fonts/OTF/SyrCOMJerusalemBold.otf'
p1066
aS'/opt/X11/share/fonts/TTF/VeraMoIt.ttf'
p1067
aS'/Library/Fonts/GujaratiMTBold.ttf'
p1068
aS'/opt/X11/share/fonts/TTF/luxirri.ttf'
p1069
aS'/Library/Fonts/Arial Narrow.ttf'
p1070
aS'/System/Library/Fonts/AppleSDGothicNeo-Bold.otf'
p1071
aS'/opt/X11/share/fonts/OTF/SyrCOMQenNeshrin.otf'
p1072
aS'/Library/Fonts/NISC18030.ttf'
p1073
aS'/Library/Fonts/MshtakanOblique.ttf'
p1074
aS'/Library/Fonts/\xe3\x83\x92\xe3\x83\xa9\xe3\x82\xad\xe3\x82\x99\xe3\x83\x8e\xe8\xa7\x92\xe3\x82\xb3\xe3\x82\x99 Pro W3.otf'
p1075
aS'/opt/X11/share/fonts/TTF/luximbi.ttf'
p1076
aS'/opt/X11/share/fonts/OTF/SyrCOMMardin.otf'
p1077
aS'/opt/X11/share/fonts/OTF/SyrCOMAdiabene.otf'
p1078
aS'/Library/Fonts/AppleMyungjo.ttf'
p1079
aS'/usr/X11/lib/X11/fonts/TTF/VeraBd.ttf'
p1080
aS'/usr/X11/lib/X11/fonts/OTF/SyrCOMMardinBold.otf'
p1081
aS'/opt/X11/share/fonts/TTF/VeraMoBd.ttf'
p1082
aS'/usr/X11/lib/X11/fonts/OTF/SyrCOMJerusalemOutline.otf'
p1083
aS'/System/Library/Fonts/ZapfDingbats.ttf'
p1084
aS'/Library/Fonts/Verdana.ttf'
p1085
aS'/Library/Fonts/Corsiva.ttf'
p1086
aS'/opt/X11/share/fonts/TTF/luximb.ttf'
p1087
aS'/Library/Fonts/STIXIntDBol.otf'
p1088
aS'/Library/Fonts/Apple LiSung Light.ttf'
p1089
aS'/usr/X11R6/lib/X11/fonts/TTF/VeraMoIt.ttf'
p1090
aS'/opt/X11/share/fonts/TTF/Vera.ttf'
p1091
aS'/opt/X11/share/fonts/TTF/GohaTibebZemen.ttf'
p1092
aS'/usr/X11R6/lib/X11/fonts/TTF/VeraMono.ttf'
p1093
aS'/Library/Fonts/Myanmar Sangam MN.ttf'
p1094
aS'/Library/Fonts/STIXSizThreeSymBol.otf'
p1095
aS'/Library/Fonts/Courier New.ttf'
p1096
aS'/Library/Fonts/Arial Narrow Bold Italic.ttf'
p1097
aS'/usr/X11/lib/X11/fonts/OTF/SyrCOMJerusalem.otf'
p1098
aS'/Library/Fonts/Zapfino.ttf'
p1099
aS'/Library/Fonts/Arial Narrow Bold.ttf'
p1100
aS'/Library/Fonts/Times New Roman Italic.ttf'
p1101
aS'/Library/Fonts/Krungthep.ttf'
p1102
aS'/Library/Fonts/\xe3\x83\x92\xe3\x83\xa9\xe3\x82\xad\xe3\x82\x99\xe3\x83\x8e\xe6\x98\x8e\xe6\x9c\x9d Pro W3.otf'
p1103
aS'/Library/Fonts/AppleSDGothicNeo-ExtraBold.otf'
p1104
aS'/usr/X11R6/lib/X11/fonts/OTF/SyrCOMBatnan.otf'
p1105
aS'/opt/X11/share/fonts/OTF/SyrCOMBatnan.otf'
p1106
aS'/usr/X11R6/lib/X11/fonts/OTF/GohaTibebZemen.otf'
p1107
aS'/Library/Fonts/Georgia.ttf'
p1108
aS'/Library/Fonts/STIXIntSmBol.otf'
p1109
aS'/Library/Fonts/Trebuchet MS Bold.ttf'
p1110
aS'/opt/X11/share/fonts/TTF/VeraMono.ttf'
p1111
aS'/usr/X11/lib/X11/fonts/OTF/SyrCOMTurAbdin.otf'
p1112
aS'/opt/X11/share/fonts/TTF/luxisr.ttf'
p1113
aS'/usr/X11R6/lib/X11/fonts/TTF/VeraMoBd.ttf'
p1114
aS'/opt/X11/share/fonts/OTF/GohaTibebZemen.otf'
p1115
aS'/usr/X11R6/lib/X11/fonts/TTF/luxirbi.ttf'
p1116
aS'/opt/X11/share/fonts/TTF/luxisri.ttf'
p1117
aS'/System/Library/Fonts/Apple Symbols.ttf'
p1118
aS'/Library/Fonts/Times New Roman Bold Italic.ttf'
p1119
aS'/Library/Fonts/Webdings.ttf'
p1120
aS'/Library/Fonts/Arial Narrow Italic.ttf'
p1121
aS'/usr/X11/lib/X11/fonts/OTF/SyrCOMCtesiphon.otf'
p1122
aS'/usr/X11R6/lib/X11/fonts/TTF/luximr.ttf'
p1123
aS'/usr/X11/lib/X11/fonts/OTF/SyrCOMTalada.otf'
p1124
aS'/usr/X11R6/lib/X11/fonts/OTF/SyrCOMUrhoyBold.otf'
p1125
aS'/System/Library/Fonts/\xe3\x83\x92\xe3\x83\xa9\xe3\x82\xad\xe3\x82\x99\xe3\x83\x8e\xe8\xa7\x92\xe3\x82\xb3\xe3\x82\x99 ProN W3.otf'
p1126
aS'/Library/Fonts/Pilgiche.ttf'
p1127
aS'/usr/X11/lib/X11/fonts/OTF/SyrCOMMidyat.otf'
p1128
aS'/System/Library/Fonts/Apple Braille Outline 8 Dot.ttf'
p1129
aS'/usr/X11R6/lib/X11/fonts/TTF/VeraSe.ttf'
p1130
aS'/opt/X11/share/fonts/OTF/SyrCOMEdessa.otf'
p1131
aS'/Library/Fonts/Nadeem.ttf'
p1132
aS'/Library/Fonts/PlantagenetCherokee.ttf'
p1133
aS'/usr/X11R6/lib/X11/fonts/TTF/luxirr.ttf'
p1134
aS'/Library/Fonts/Times New Roman Bold.ttf'
p1135
aS'/Library/Fonts/BiauKai.ttf'
p1136
aS'/usr/X11/lib/X11/fonts/OTF/SyrCOMUrhoyBold.otf'
p1137
aS'/usr/X11/lib/X11/fonts/TTF/VeraIt.ttf'
p1138
aS'/usr/X11/lib/X11/fonts/TTF/luxisbi.ttf'
p1139
aS'/Library/Fonts/Arial Bold Italic.ttf'
p1140
aS'/usr/X11/lib/X11/fonts/TTF/GohaTibebZemen.ttf'
p1141
aS'/Library/Fonts/STIXVar.otf'
p1142
aS'/Library/Fonts/STIXVarBol.otf'
p1143
aS'/usr/X11R6/lib/X11/fonts/OTF/SyrCOMTurAbdin.otf'
p1144
aS'/usr/X11/lib/X11/fonts/OTF/SyrCOMBatnanBold.otf'
p1145
aS'/Library/Fonts/Hiragino Sans GB W3.otf'
p1146
aS'/System/Library/Fonts/\xe3\x83\x92\xe3\x83\xa9\xe3\x82\xad\xe3\x82\x99\xe3\x83\x8e\xe8\xa7\x92\xe3\x82\xb3\xe3\x82\x99 ProN W6.otf'
p1147
aS'/Library/Fonts/\xe3\x83\x92\xe3\x83\xa9\xe3\x82\xad\xe3\x82\x99\xe3\x83\x8e\xe8\xa7\x92\xe3\x82\xb3\xe3\x82\x99 StdN W8.otf'
p1148
aS'/Library/Fonts/MshtakanBold.ttf'
p1149
aS'/usr/X11/lib/X11/fonts/TTF/VeraMoIt.ttf'
p1150
aS'/usr/X11/lib/X11/fonts/TTF/VeraMono.ttf'
p1151
aS'/opt/X11/share/fonts/OTF/SyrCOMUrhoy.otf'
p1152
aS'/opt/X11/share/fonts/TTF/luxirbi.ttf'
p1153
aS'/usr/X11/lib/X11/fonts/OTF/SyrCOMBatnan.otf'
p1154
aS'/Library/Fonts/STIXIntUpBol.otf'
p1155
aS'/usr/X11R6/lib/X11/fonts/OTF/SyrCOMJerusalem.otf'
p1156
aS'/usr/X11R6/lib/X11/fonts/OTF/SyrCOMCtesiphon.otf'
p1157
aS'/Library/Fonts/AlBayan.ttf'
p1158
aS'/opt/X11/share/fonts/OTF/SyrCOMNisibin.otf'
p1159
aS'/Library/Fonts/STIXSizFiveSymReg.otf'
p1160
aS'/Library/Fonts/CorsivaBold.ttf'
p1161
aS'/usr/X11R6/lib/X11/fonts/TTF/luxisbi.ttf'
p1162
aS'/usr/X11/lib/X11/fonts/OTF/SyrCOMAdiabene.otf'
p1163
aS'/opt/X11/share/fonts/TTF/VeraSeBd.ttf'
p1164
aS'/usr/X11/lib/X11/fonts/TTF/luxisb.ttf'
p1165
aS'/opt/X11/share/fonts/OTF/SyrCOMNisibinOutline.otf'
p1166
aS'/opt/X11/share/fonts/TTF/luximr.ttf'
p1167
aS'/Library/Fonts/Gurmukhi.ttf'
p1168
aS'/usr/X11/lib/X11/fonts/TTF/VeraMoBI.ttf'
p1169
aS'/usr/X11/lib/X11/fonts/TTF/luxirbi.ttf'
p1170
aS'/usr/X11R6/lib/X11/fonts/OTF/SyrCOMMardin.otf'
p1171
aS'/usr/X11R6/lib/X11/fonts/TTF/VeraIt.ttf'
p1172
aS'/System/Library/Fonts/Apple Color Emoji.ttf'
p1173
aS'/Library/Fonts/Skia.ttf'
p1174
aS'/opt/X11/share/fonts/TTF/VeraIt.ttf'
p1175
aS'/opt/X11/share/fonts/OTF/SyrCOMBatnanBold.otf'
p1176
aS'/Library/Fonts/\xe5\x8d\x8e\xe6\x96\x87\xe4\xbb\xbf\xe5\xae\x8b.ttf'
p1177
aS'/usr/X11/lib/X11/fonts/OTF/SyrCOMNisibinOutline.otf'
p1178
aS'/Library/Fonts/Arial Italic.ttf'
p1179
aS'/Library/Fonts/\xe3\x83\x92\xe3\x83\xa9\xe3\x82\xad\xe3\x82\x99\xe3\x83\x8e\xe8\xa7\x92\xe3\x82\xb3\xe3\x82\x99 Std W8.otf'
p1180
aS'/Library/Fonts/\xe5\x84\xb7\xe5\xae\x8b Pro.ttf'
p1181
aS'/Library/Fonts/\xe3\x83\x92\xe3\x83\xa9\xe3\x82\xad\xe3\x82\x99\xe3\x83\x8e\xe4\xb8\xb8\xe3\x82\xb3\xe3\x82\x99 Pro W4.otf'
p1182
aS'/Library/Fonts/STIXGeneralBol.otf'
p1183
aS'/Library/Fonts/STIXNonUniBolIta.otf'
p1184
aS'/System/Library/Fonts/Apple Braille Pinpoint 8 Dot.ttf'
p1185
aS'/usr/X11R6/lib/X11/fonts/TTF/luxirb.ttf'
p1186
aS'/Library/Fonts/Georgia Italic.ttf'
p1187
aS'/usr/X11R6/lib/X11/fonts/OTF/SyrCOMNisibinOutline.otf'
p1188
aS'/System/Library/Fonts/Apple Braille Outline 6 Dot.ttf'
p1189
aS'/Library/Fonts/Chalkduster.ttf'
p1190
aS'/Library/Fonts/Courier New Bold Italic.ttf'
p1191
aS'/Library/Fonts/RaananaBold.ttf'
p1192
aS'/opt/X11/share/fonts/OTF/SyrCOMTalada.otf'
p1193
aS'/Library/Fonts/NewPeninimMTInclined.ttf'
p1194
aS'/usr/X11/lib/X11/fonts/OTF/SyrCOMKharput.otf'
p1195
aS'/Library/Fonts/Arial Rounded Bold.ttf'
p1196
aS'/Library/Fonts/DevanagariMTBold.ttf'
p1197
aS'/System/Library/Fonts/ThonburiBold.ttf'
p1198
aS'/usr/X11R6/lib/X11/fonts/OTF/SyrCOMNisibin.otf'
p1199
aS'/usr/X11/lib/X11/fonts/TTF/luxirri.ttf'
p1200
aS'/opt/X11/share/fonts/OTF/SyrCOMAntioch.otf'
p1201
aS'/Library/Fonts/PCmyoungjo.ttf'
p1202
aS'/System/Library/Fonts/LastResort.ttf'
p1203
aS'/Library/Fonts/AppleSDGothicNeo-Light.otf'
p1204
aS'/usr/X11R6/lib/X11/fonts/OTF/SyrCOMUrhoy.otf'
p1205
aS'/Library/Fonts/Verdana Bold Italic.ttf'
p1206
aS'/usr/X11/lib/X11/fonts/OTF/SyrCOMQenNeshrin.otf'
p1207
aS'/Library/Fonts/\xe9\x9b\x85\xe7\x97\x9e-\xe7\xb9\x81.otf'
p1208
aS'/Library/Fonts/Hiragino Sans GB W6.otf'
p1209
aS'/Library/Fonts/Kailasa.ttf'
p1210
aS'/usr/X11/lib/X11/fonts/OTF/SyrCOMEdessa.otf'
p1211
aS'/Library/Fonts/STIXIntSmReg.otf'
p1212
aS'/Library/Fonts/AppleSDGothicNeo-Thin.otf'
p1213
aS'/Library/Fonts/Kokonor.ttf'
p1214
aS'/System/Library/Fonts/Geeza Pro Bold.ttf'
p1215
aS'/usr/X11R6/lib/X11/fonts/OTF/SyrCOMEdessa.otf'
p1216
aS'/Library/Fonts/Verdana Italic.ttf'
p1217
aS'/Library/Fonts/DevanagariMT.ttf'
p1218
aS'/System/Library/Fonts/Apple Braille.ttf'
p1219
aS'/usr/X11R6/lib/X11/fonts/OTF/SyrCOMAdiabene.otf'
p1220
aS'/Library/Fonts/\xe3\x83\x92\xe3\x83\xa9\xe3\x82\xad\xe3\x82\x99\xe3\x83\x8e\xe6\x98\x8e\xe6\x9c\x9d Pro W6.otf'
p1221
aS'/usr/X11R6/lib/X11/fonts/OTF/SyrCOMQenNeshrin.otf'
p1222
aS'/usr/X11R6/lib/X11/fonts/OTF/SyrCOMBatnanBold.otf'
p1223
aS'/Library/Fonts/InaiMathi.ttf'
p1224
aS'/usr/X11/lib/X11/fonts/OTF/SyrCOMAntioch.otf'
p1225
aS'/usr/X11/lib/X11/fonts/TTF/luxirb.ttf'
p1226
aS'/opt/X11/share/fonts/OTF/SyrCOMMidyat.otf'
p1227
aS'/Library/Fonts/STIXNonUni.otf'
p1228
aS'/usr/X11/lib/X11/fonts/OTF/SyrCOMJerusalemBold.otf'
p1229
aS'/Library/Fonts/STIXIntDReg.otf'
p1230
aS'/opt/X11/share/fonts/TTF/luxirr.ttf'
p1231
aS'/Library/Fonts/STIXNonUniIta.otf'
p1232
aS'/Library/Fonts/Baghdad.ttf'
p1233
aS'/Library/Fonts/STIXIntUpReg.otf'
p1234
aS'/opt/X11/share/fonts/TTF/luxirb.ttf'
p1235
aS'/Library/Fonts/Comic Sans MS Bold.ttf'
p1236
aS'/Library/Fonts/Trebuchet MS.ttf'
p1237
aS'/usr/X11R6/lib/X11/fonts/OTF/SyrCOMJerusalemOutline.otf'
p1238
aS'/usr/X11/lib/X11/fonts/TTF/VeraBI.ttf'
p1239
aS'/Library/Fonts/Courier New Bold.ttf'
p1240
aS'/Library/Fonts/BigCaslon.ttf'
p1241
aS'/opt/X11/share/fonts/OTF/SyrCOMJerusalem.otf'
p1242
aS'/opt/X11/share/fonts/TTF/VeraSe.ttf'
p1243
aS'/usr/X11/lib/X11/fonts/OTF/SyrCOMUrhoy.otf'
p1244
aS'/opt/X11/share/fonts/OTF/SyrCOMJerusalemItalic.otf'
p1245
aS'/Library/Fonts/Ayuthaya.ttf'
p1246
aS'/opt/X11/share/fonts/OTF/SyrCOMJerusalemBold.otf'
p1247
aS'/Library/Fonts/AppleSDGothicNeo-SemiBold.otf'
p1248
aS'/Library/Fonts/Herculanum.ttf'
p1249
aS'/Library/Fonts/DecoTypeNaskh.ttf'
p1250
aS'/usr/X11R6/lib/X11/fonts/OTF/SyrCOMMidyat.otf'
p1251
aS'/System/Library/Fonts/Apple Braille Pinpoint 6 Dot.ttf'
p1252
aS'/Library/Fonts/\xe3\x83\x92\xe3\x83\xa9\xe3\x82\xad\xe3\x82\x99\xe3\x83\x8e\xe8\xa7\x92\xe3\x82\xb3\xe3\x82\x99 Pro W6.otf'
p1253
aS'/System/Library/Fonts/Symbol.ttf'
p1254
aS'/usr/X11R6/lib/X11/fonts/TTF/luxisr.ttf'
p1255
aS'/Library/Fonts/Trebuchet MS Bold Italic.ttf'
p1256
aS'/usr/X11/lib/X11/fonts/TTF/VeraSeBd.ttf'
p1257
aS'/System/Library/Fonts/AppleSDGothicNeo-Regular.otf'
p1258
aS'/usr/X11/lib/X11/fonts/OTF/SyrCOMMalankara.otf'
p1259
aS'/Library/Fonts/AlBayanBold.ttf'
p1260
aS'/Library/Fonts/Wingdings 2.ttf'
p1261
aS'/Library/Fonts/HeadlineA.ttf'
p1262
aS'/opt/X11/share/fonts/OTF/SyrCOMJerusalemOutline.otf'
p1263
aS'/Library/Fonts/Tahoma.ttf'
p1264
aS'/Library/Fonts/Brush Script.ttf'
p1265
aS'/Library/Fonts/ArialHBBold.ttf'
p1266
aS'/System/Library/Fonts/Keyboard.ttf'
p1267
aS'/opt/X11/share/fonts/OTF/SyrCOMMardinBold.otf'
p1268
aS'/Library/Fonts/\xe3\x83\x92\xe3\x83\xa9\xe3\x82\xad\xe3\x82\x99\xe3\x83\x8e\xe4\xb8\xb8\xe3\x82\xb3\xe3\x82\x99 ProN W4.otf'
p1269
aS'/Library/Fonts/STIXSizOneSymReg.otf'
p1270
aS'/Library/Fonts/STIXIntUpSmReg.otf'
p1271
aS'/Library/Fonts/Andale Mono.ttf'
p1272
aS'/System/Library/Fonts/Geeza Pro.ttf'
p1273
aS'/Library/Fonts/Khmer Sangam MN.ttf'
p1274
aS'/usr/X11R6/lib/X11/fonts/TTF/luximbi.ttf'
p1275
aS'/usr/X11R6/lib/X11/fonts/OTF/SyrCOMMalankara.otf'
p1276
aS'/Library/Fonts/Microsoft Sans Serif.ttf'
p1277
aS'/usr/X11/lib/X11/fonts/TTF/luximb.ttf'
p1278
aS'/opt/X11/share/fonts/TTF/VeraMoBI.ttf'
p1279
aS'/Library/Fonts/STIXIntUpDBol.otf'
p1280
aS'/Library/Fonts/Kai.ttf'
p1281
aS'/opt/X11/share/fonts/OTF/SyrCOMTurAbdin.otf'
p1282
aS'/opt/X11/share/fonts/OTF/SyrCOMCtesiphon.otf'
p1283
aS'/Library/Fonts/STIXGeneral.otf'
p1284
aS'/Library/Fonts/Courier New Italic.ttf'
p1285
aS'/Library/Fonts/Arial Black.ttf'
p1286
aS'/usr/X11/lib/X11/fonts/TTF/luximbi.ttf'
p1287
aS'/usr/X11/lib/X11/fonts/TTF/luxirr.ttf'
p1288
aS'/usr/X11/lib/X11/fonts/OTF/SyrCOMMardin.otf'
p1289
aS'/Library/Fonts/STIXGeneralItalic.otf'
p1290
aS'/usr/X11/lib/X11/fonts/OTF/GohaTibebZemen.otf'
p1291
aS'/Library/Fonts/Silom.ttf'
p1292
aS'/Library/Fonts/\xe9\x9b\x85\xe7\x97\x9e-\xe7\xae\x80.otf'
p1293
aS'/Library/Fonts/MshtakanBoldOblique.ttf'
p1294
aS'/opt/X11/share/fonts/TTF/luximri.ttf'
p1295
aS'/usr/X11R6/lib/X11/fonts/OTF/SyrCOMAntioch.otf'
p1296
aS'/opt/X11/share/fonts/OTF/SyrCOMKharput.otf'
p1297
aS'/Library/Fonts/\xe5\x8d\x8e\xe6\x96\x87\xe7\xbb\x86\xe9\xbb\x91.ttf'
p1298
aS'/Library/Fonts/STIXSizFourSymReg.otf'
p1299
aS'/usr/X11R6/lib/X11/fonts/TTF/VeraSeBd.ttf'
p1300
aS'/Library/Fonts/\xe5\x8d\x8e\xe6\x96\x87\xe9\xbb\x91\xe4\xbd\x93.ttf'
p1301
aS'/Library/Fonts/Apple Chancery.ttf'
p1302
aS'/usr/X11R6/lib/X11/fonts/TTF/luximb.ttf'
p1303
aS'/usr/X11/lib/X11/fonts/TTF/luximr.ttf'
p1304
aS'/System/Library/Fonts/Thonburi.ttf'
p1305
aS'/usr/X11/lib/X11/fonts/TTF/Vera.ttf'
p1306
aS'/opt/X11/share/fonts/OTF/SyrCOMMalankara.otf'
p1307
aS'/usr/X11/lib/X11/fonts/TTF/luxisr.ttf'
p1308
aS'/opt/X11/share/fonts/TTF/VeraBd.ttf'
p1309
aS'/Library/Fonts/Wingdings 3.ttf'
p1310
aS'/Library/Fonts/STIXGeneralBolIta.otf'
p1311
aS'/Library/Fonts/ArialHB.ttf'
p1312
aS'/opt/X11/share/fonts/TTF/VeraBI.ttf'
p1313
aS'/Library/Fonts/STIXIntUpSmBol.otf'
p1314
aS'/Library/Fonts/Lao Sangam MN.ttf'
p1315
aS'/usr/X11R6/lib/X11/fonts/TTF/GohaTibebZemen.ttf'
p1316
aS'/Library/Fonts/KufiStandardGK.ttf'
p1317
aS'/usr/X11R6/lib/X11/fonts/TTF/luxisb.ttf'
p1318
aS'/usr/X11R6/lib/X11/fonts/OTF/SyrCOMJerusalemItalic.otf'
p1319
aS'/Library/Fonts/STIXSizOneSymBol.otf'
p1320
aS'/Library/Fonts/Comic Sans MS.ttf'
p1321
aS'/opt/X11/share/fonts/TTF/luxisb.ttf'
p1322
aS'/Library/Fonts/STIXSizTwoSymReg.otf'
p1323
aS'/Library/Fonts/Hei.ttf'
p1324
aS'/Library/Fonts/STIXSizFourSymBol.otf'
p1325
aS'/Library/Fonts/Apple LiGothic Medium.ttf'
p1326
aS'/Library/Fonts/NewPeninimMTBold.ttf'
p1327
aS'/Library/Fonts/Arial Bold.ttf'
p1328
aS'/Library/Fonts/Georgia Bold.ttf'
p1329
aS'/System/Library/Fonts/\xe3\x83\x92\xe3\x83\xa9\xe3\x82\xad\xe3\x82\x99\xe3\x83\x8e\xe6\x98\x8e\xe6\x9c\x9d ProN W3.otf'
p1330
aS'/Library/Fonts/OsakaMono.ttf'
p1331
aS'/Library/Fonts/Gungseouche.ttf'
p1332
aS'/usr/X11/lib/X11/fonts/OTF/SyrCOMJerusalemItalic.otf'
p1333
aS'/usr/X11R6/lib/X11/fonts/TTF/luxisri.ttf'
p1334
aS'/Library/Fonts/STIXSizTwoSymBol.otf'
p1335
aS'/Library/Fonts/Wingdings.ttf'
p1336
aS'/Library/Fonts/Impact.ttf'
p1337
aS'/usr/X11/lib/X11/fonts/TTF/VeraMoBd.ttf'
p1338
aS'/Library/Fonts/Tahoma Bold.ttf'
p1339
aS'/Library/Fonts/STIXNonUniBol.otf'
p1340
aS'/Library/Fonts/Georgia Bold Italic.ttf'
p1341
aS'/Library/Fonts/STIXIntUpDReg.otf'
p1342
aS'/Library/Fonts/Sathu.ttf'
p1343
aS'/usr/X11R6/lib/X11/fonts/TTF/luximri.ttf'
p1344
aS'/Library/Fonts/GujaratiMT.ttf'
p1345
aS'/opt/X11/share/fonts/OTF/SyrCOMUrhoyBold.otf'
p1346
aS'/Library/Fonts/AppleSDGothicNeo-Medium.otf'
p1347
asS'_FontManager__default_weight'
p1348
g18
sS'_version'
p1349
I101
sS'ttf_lookup_cache'
p1350
(dp1351
sS'default_size'
p1352
NsS'defaultFont'
p1353
(dp1354
g996
S'/opt/local/Library/Frameworks/Python.framework/Versions/2.7/lib/python2.7/site-packages/matplotlib/mpl-data/fonts/afm/ptmb8a.afm'
p1355
sg998
g1024
ssS'afmfiles'
p1356
(lp1357
g1355
aS'/opt/local/Library/Frameworks/Python.framework/Versions/2.7/lib/python2.7/site-packages/matplotlib/mpl-data/fonts/pdfcorefonts/Symbol.afm'
p1358
aS'/opt/local/Library/Frameworks/Python.framework/Versions/2.7/lib/python2.7/site-packages/matplotlib/mpl-data/fonts/pdfcorefonts/Helvetica.afm'
p1359
aS'/opt/local/Library/Frameworks/Python.framework/Versions/2.7/lib/python2.7/site-packages/matplotlib/mpl-data/fonts/pdfcorefonts/Times-Bold.afm'
p1360
aS'/opt/local/Library/Frameworks/Python.framework/Versions/2.7/lib/python2.7/site-packages/matplotlib/mpl-data/fonts/afm/psyr.afm'
p1361
aS'/opt/local/Library/Frameworks/Python.framework/Versions/2.7/lib/python2.7/site-packages/matplotlib/mpl-data/fonts/afm/cmex10.afm'
p1362
aS'/opt/local/Library/Frameworks/Python.framework/Versions/2.7/lib/python2.7/site-packages/matplotlib/mpl-data/fonts/afm/pagd8a.afm'
p1363
aS'/opt/local/Library/Frameworks/Python.framework/Versions/2.7/lib/python2.7/site-packages/matplotlib/mpl-data/fonts/afm/pplri8a.afm'
p1364
aS'/opt/local/Library/Frameworks/Python.framework/Versions/2.7/lib/python2.7/site-packages/matplotlib/mpl-data/fonts/afm/cmmi10.afm'
p1365
aS'/opt/local/Library/Frameworks/Python.framework/Versions/2.7/lib/python2.7/site-packages/matplotlib/mpl-data/fonts/afm/pplr8a.afm'
p1366
aS'/opt/local/Library/Frameworks/Python.framework/Versions/2.7/lib/python2.7/site-packages/matplotlib/mpl-data/fonts/afm/pncri8a.afm'
p1367
aS'/opt/local/Library/Frameworks/Python.framework/Versions/2.7/lib/python2.7/site-packages/matplotlib/mpl-data/fonts/pdfcorefonts/Courier-Bold.afm'
p1368
aS'/opt/local/Library/Frameworks/Python.framework/Versions/2.7/lib/python2.7/site-packages/matplotlib/mpl-data/fonts/afm/phvro8an.afm'
p1369
aS'/opt/local/Library/Frameworks/Python.framework/Versions/2.7/lib/python2.7/site-packages/matplotlib/mpl-data/fonts/afm/phvb8a.afm'
p1370
aS'/opt/local/Library/Frameworks/Python.framework/Versions/2.7/lib/python2.7/site-packages/matplotlib/mpl-data/fonts/afm/pagdo8a.afm'
p1371
aS'/opt/local/Library/Frameworks/Python.framework/Versions/2.7/lib/python2.7/site-packages/matplotlib/mpl-data/fonts/pdfcorefonts/Courier-Oblique.afm'
p1372
aS'/opt/local/Library/Frameworks/Python.framework/Versions/2.7/lib/python2.7/site-packages/matplotlib/mpl-data/fonts/afm/pbkdi8a.afm'
p1373
aS'/opt/local/Library/Frameworks/Python.framework/Versions/2.7/lib/python2.7/site-packages/matplotlib/mpl-data/fonts/pdfcorefonts/Times-BoldItalic.afm'
p1374
aS'/opt/local/Library/Frameworks/Python.framework/Versions/2.7/lib/python2.7/site-packages/matplotlib/mpl-data/fonts/pdfcorefonts/Courier.afm'
p1375
aS'/opt/local/Library/Frameworks/Python.framework/Versions/2.7/lib/python2.7/site-packages/matplotlib/mpl-data/fonts/afm/phvbo8an.afm'
p1376
aS'/opt/local/Library/Frameworks/Python.framework/Versions/2.7/lib/python2.7/site-packages/matplotlib/mpl-data/fonts/pdfcorefonts/Times-Italic.afm'
p1377
aS'/opt/local/Library/Frameworks/Python.framework/Versions/2.7/lib/python2.7/site-packages/matplotlib/mpl-data/fonts/afm/pbkli8a.afm'
p1378
aS'/opt/local/Library/Frameworks/Python.framework/Versions/2.7/lib/python2.7/site-packages/matplotlib/mpl-data/fonts/afm/pzdr.afm'
p1379
aS'/opt/local/Library/Frameworks/Python.framework/Versions/2.7/lib/python2.7/site-packages/matplotlib/mpl-data/fonts/afm/phvr8an.afm'
p1380
aS'/opt/local/Library/Frameworks/Python.framework/Versions/2.7/lib/python2.7/site-packages/matplotlib/mpl-data/fonts/afm/putb8a.afm'
p1381
aS'/opt/local/Library/Frameworks/Python.framework/Versions/2.7/lib/python2.7/site-packages/matplotlib/mpl-data/fonts/afm/pagk8a.afm'
p1382
aS'/opt/local/Library/Frameworks/Python.framework/Versions/2.7/lib/python2.7/site-packages/matplotlib/mpl-data/fonts/afm/phvro8a.afm'
p1383
aS'/opt/local/Library/Frameworks/Python.framework/Versions/2.7/lib/python2.7/site-packages/matplotlib/mpl-data/fonts/afm/putbi8a.afm'
p1384
aS'/opt/local/Library/Frameworks/Python.framework/Versions/2.7/lib/python2.7/site-packages/matplotlib/mpl-data/fonts/afm/pcrr8a.afm'
p1385
aS'/opt/local/Library/Frameworks/Python.framework/Versions/2.7/lib/python2.7/site-packages/matplotlib/mpl-data/fonts/pdfcorefonts/Helvetica-BoldOblique.afm'
p1386
aS'/opt/local/Library/Frameworks/Python.framework/Versions/2.7/lib/python2.7/site-packages/matplotlib/mpl-data/fonts/pdfcorefonts/Helvetica-Oblique.afm'
p1387
aS'/opt/local/Library/Frameworks/Python.framework/Versions/2.7/lib/python2.7/site-packages/matplotlib/mpl-data/fonts/afm/ptmri8a.afm'
p1388
aS'/opt/local/Library/Frameworks/Python.framework/Versions/2.7/lib/python2.7/site-packages/matplotlib/mpl-data/fonts/afm/phvbo8a.afm'
p1389
aS'/opt/local/Library/Frameworks/Python.framework/Versions/2.7/lib/python2.7/site-packages/matplotlib/mpl-data/fonts/afm/pzcmi8a.afm'
p1390
aS'/opt/local/Library/Frameworks/Python.framework/Versions/2.7/lib/python2.7/site-packages/matplotlib/mpl-data/fonts/afm/putri8a.afm'
p1391
aS'/opt/local/Library/Frameworks/Python.framework/Versions/2.7/lib/python2.7/site-packages/matplotlib/mpl-data/fonts/afm/pbkd8a.afm'
p1392
aS'/opt/local/Library/Frameworks/Python.framework/Versions/2.7/lib/python2.7/site-packages/matplotlib/mpl-data/fonts/pdfcorefonts/ZapfDingbats.afm'
p1393
aS'/opt/local/Library/Frameworks/Python.framework/Versions/2.7/lib/python2.7/site-packages/matplotlib/mpl-data/fonts/afm/phvr8a.afm'
p1394
aS'/opt/local/Library/Frameworks/Python.framework/Versions/2.7/lib/python2.7/site-packages/matplotlib/mpl-data/fonts/afm/pbkl8a.afm'
p1395
aS'/opt/local/Library/Frameworks/Python.framework/Versions/2.7/lib/python2.7/site-packages/matplotlib/mpl-data/fonts/afm/pncbi8a.afm'
p1396
aS'/opt/local/Library/Frameworks/Python.framework/Versions/2.7/lib/python2.7/site-packages/matplotlib/mpl-data/fonts/afm/putr8a.afm'
p1397
aS'/opt/local/Library/Frameworks/Python.framework/Versions/2.7/lib/python2.7/site-packages/matplotlib/mpl-data/fonts/pdfcorefonts/Helvetica-Bold.afm'
p1398
aS'/opt/local/Library/Frameworks/Python.framework/Versions/2.7/lib/python2.7/site-packages/matplotlib/mpl-data/fonts/afm/phvlo8a.afm'
p1399
aS'/opt/local/Library/Frameworks/Python.framework/Versions/2.7/lib/python2.7/site-packages/matplotlib/mpl-data/fonts/afm/pncb8a.afm'
p1400
aS'/opt/local/Library/Frameworks/Python.framework/Versions/2.7/lib/python2.7/site-packages/matplotlib/mpl-data/fonts/afm/phvb8an.afm'
p1401
aS'/opt/local/Library/Frameworks/Python.framework/Versions/2.7/lib/python2.7/site-packages/matplotlib/mpl-data/fonts/afm/pcrro8a.afm'
p1402
aS'/opt/local/Library/Frameworks/Python.framework/Versions/2.7/lib/python2.7/site-packages/matplotlib/mpl-data/fonts/afm/phvl8a.afm'
p1403
aS'/opt/local/Library/Frameworks/Python.framework/Versions/2.7/lib/python2.7/site-packages/matplotlib/mpl-data/fonts/afm/pcrb8a.afm'
p1404
aS'/opt/local/Library/Frameworks/Python.framework/Versions/2.7/lib/python2.7/site-packages/matplotlib/mpl-data/fonts/afm/cmr10.afm'
p1405
aS'/opt/local/Library/Frameworks/Python.framework/Versions/2.7/lib/python2.7/site-packages/matplotlib/mpl-data/fonts/afm/cmsy10.afm'
p1406
aS'/opt/local/Library/Frameworks/Python.framework/Versions/2.7/lib/python2.7/site-packages/matplotlib/mpl-data/fonts/afm/pagko8a.afm'
p1407
aS'/opt/local/Library/Frameworks/Python.framework/Versions/2.7/lib/python2.7/site-packages/matplotlib/mpl-data/fonts/pdfcorefonts/Times-Roman.afm'
p1408
aS'/opt/local/Library/Frameworks/Python.framework/Versions/2.7/lib/python2.7/site-packages/matplotlib/mpl-data/fonts/pdfcorefonts/Courier-BoldOblique.afm'
p1409
aS'/opt/local/Library/Frameworks/Python.framework/Versions/2.7/lib/python2.7/site-packages/matplotlib/mpl-data/fonts/afm/pcrbo8a.afm'
p1410
aS'/opt/local/Library/Frameworks/Python.framework/Versions/2.7/lib/python2.7/site-packages/matplotlib/mpl-data/fonts/afm/cmtt10.afm'
p1411
aS'/opt/local/Library/Frameworks/Python.framework/Versions/2.7/lib/python2.7/site-packages/matplotlib/mpl-data/fonts/afm/ptmr8a.afm'
p1412
aS'/opt/local/Library/Frameworks/Python.framework/Versions/2.7/lib/python2.7/site-packages/matplotlib/mpl-data/fonts/afm/pncr8a.afm'
p1413
aS'/opt/local/Library/Frameworks/Python.framework/Versions/2.7/lib/python2.7/site-packages/matplotlib/mpl-data/fonts/afm/pplb8a.afm'
p1414
aS'/opt/local/Library/Frameworks/Python.framework/Versions/2.7/lib/python2.7/site-packages/matplotlib/mpl-data/fonts/afm/pplbi8a.afm'
p1415
aS'/opt/local/Library/Frameworks/Python.framework/Versions/2.7/lib/python2.7/site-packages/matplotlib/mpl-data/fonts/afm/ptmbi8a.afm'
p1416
aS'/usr/X11/lib/X11/fonts/Type1/UTB_____.afm'
p1417
aS'/usr/X11/lib/X11/fonts/Type1/c0583bt_.afm'
p1418
aS'/usr/X11/lib/X11/fonts/Type1/l049036t.afm'
p1419
aS'/usr/X11/lib/X11/fonts/Type1/c0649bt_.afm'
p1420
aS'/usr/X11/lib/X11/fonts/Type1/UTRG____.afm'
p1421
aS'/usr/X11/lib/X11/fonts/Type1/c0582bt_.afm'
p1422
aS'/usr/X11/lib/X11/fonts/Type1/c0648bt_.afm'
p1423
aS'/usr/X11/lib/X11/fonts/Type1/c0633bt_.afm'
p1424
aS'/usr/X11/lib/X11/fonts/Type1/l048013t.afm'
p1425
aS'/usr/X11/lib/X11/fonts/Type1/courb.afm'
p1426
aS'/usr/X11/lib/X11/fonts/Type1/c0419bt_.afm'
p1427
aS'/usr/X11/lib/X11/fonts/Type1/UTI_____.afm'
p1428
aS'/usr/X11/lib/X11/fonts/Type1/l049016t.afm'
p1429
aS'/usr/X11/lib/X11/fonts/Type1/l048033t.afm'
p1430
aS'/usr/X11/lib/X11/fonts/Type1/l048016t.afm'
p1431
aS'/usr/X11/lib/X11/fonts/Type1/l048036t.afm'
p1432
aS'/usr/X11/lib/X11/fonts/Type1/courbi.afm'
p1433
aS'/usr/X11/lib/X11/fonts/Type1/c0632bt_.afm'
p1434
aS'/usr/X11/lib/X11/fonts/Type1/l049013t.afm'
p1435
aS'/usr/X11/lib/X11/fonts/Type1/c0611bt_.afm'
p1436
aS'/usr/X11/lib/X11/fonts/Type1/l047036t.afm'
p1437
aS'/usr/X11/lib/X11/fonts/Type1/l047016t.afm'
p1438
aS'/usr/X11/lib/X11/fonts/Type1/l047033t.afm'
p1439
aS'/usr/X11/lib/X11/fonts/Type1/l047013t.afm'
p1440
aS'/usr/X11/lib/X11/fonts/Type1/l049033t.afm'
p1441
aS'/usr/X11/lib/X11/fonts/Type1/UTBI____.afm'
p1442
aS'/usr/X11/lib/X11/fonts/Type1/cour.afm'
p1443
aS'/usr/X11/lib/X11/fonts/Type1/couri.afm'
p1444
asS'afmlist'
p1445
(lp1446
g7
(g8
g9
NtRp1447
(dp1448
g12
g18
sg14
S'Times'
p1449
sg16
I700
sg17
g18
sg19
g18
sg20
g1355
sg22
g23
sbag7
(g8
g9
NtRp1450
(dp1451
g12
g18
sg14
S'Symbol'
p1452
sg16
I500
sg17
g18
sg19
g18
sg20
g1358
sg22
g23
sbag7
(g8
g9
NtRp1453
(dp1454
g12
g18
sg14
S'Helvetica'
p1455
sg16
I500
sg17
g18
sg19
g18
sg20
g1359
sg22
g23
sbag7
(g8
g9
NtRp1456
(dp1457
g12
g18
sg14
S'Times'
p1458
sg16
I700
sg17
g18
sg19
g18
sg20
g1360
sg22
g23
sbag7
(g8
g9
NtRp1459
(dp1460
g12
g18
sg14
S'Symbol'
p1461
sg16
I500
sg17
g18
sg19
g18
sg20
g1361
sg22
g23
sbag7
(g8
g9
NtRp1462
(dp1463
g12
g18
sg14
S'Computer Modern'
p1464
sg16
I500
sg17
g18
sg19
g18
sg20
g1362
sg22
g23
sbag7
(g8
g9
NtRp1465
(dp1466
g12
g18
sg14
S'ITC Avant Garde Gothic'
p1467
sg16
I600
sg17
g18
sg19
g18
sg20
g1363
sg22
g23
sbag7
(g8
g9
NtRp1468
(dp1469
g12
g13
sg14
S'Palatino'
p1470
sg16
I500
sg17
g18
sg19
g18
sg20
g1364
sg22
g23
sbag7
(g8
g9
NtRp1471
(dp1472
g12
g13
sg14
S'Computer Modern'
p1473
sg16
I500
sg17
g18
sg19
g18
sg20
g1365
sg22
g23
sbag7
(g8
g9
NtRp1474
(dp1475
g12
g18
sg14
S'Palatino'
p1476
sg16
I500
sg17
g18
sg19
g18
sg20
g1366
sg22
g23
sbag7
(g8
g9
NtRp1477
(dp1478
g12
g13
sg14
S'New Century Schoolbook'
p1479
sg16
I500
sg17
g18
sg19
g18
sg20
g1367
sg22
g23
sbag7
(g8
g9
NtRp1480
(dp1481
g12
g18
sg14
S'Courier'
p1482
sg16
I700
sg17
g18
sg19
g18
sg20
g1368
sg22
g23
sbag7
(g8
g9
NtRp1483
(dp1484
g12
g13
sg14
S'Helvetica'
p1485
sg16
I500
sg17
g268
sg19
g18
sg20
g1369
sg22
g23
sbag7
(g8
g9
NtRp1486
(dp1487
g12
g18
sg14
S'Helvetica'
p1488
sg16
I700
sg17
g18
sg19
g18
sg20
g1370
sg22
g23
sbag7
(g8
g9
NtRp1489
(dp1490
g12
g13
sg14
S'ITC Avant Garde Gothic'
p1491
sg16
I600
sg17
g18
sg19
g18
sg20
g1371
sg22
g23
sbag7
(g8
g9
NtRp1492
(dp1493
g12
g13
sg14
S'Courier'
p1494
sg16
I500
sg17
g18
sg19
g18
sg20
g1372
sg22
g23
sbag7
(g8
g9
NtRp1495
(dp1496
g12
g13
sg14
S'ITC Bookman'
p1497
sg16
I600
sg17
g18
sg19
g18
sg20
g1373
sg22
g23
sbag7
(g8
g9
NtRp1498
(dp1499
g12
g13
sg14
S'Times'
p1500
sg16
I700
sg17
g18
sg19
g18
sg20
g1374
sg22
g23
sbag7
(g8
g9
NtRp1501
(dp1502
g12
g18
sg14
S'Courier'
p1503
sg16
I500
sg17
g18
sg19
g18
sg20
g1375
sg22
g23
sbag7
(g8
g9
NtRp1504
(dp1505
g12
g13
sg14
S'Helvetica'
p1506
sg16
I700
sg17
g268
sg19
g18
sg20
g1376
sg22
g23
sbag7
(g8
g9
NtRp1507
(dp1508
g12
g13
sg14
S'Times'
p1509
sg16
I500
sg17
g18
sg19
g18
sg20
g1377
sg22
g23
sbag7
(g8
g9
NtRp1510
(dp1511
g12
g13
sg14
S'ITC Bookman'
p1512
sg16
I200
sg17
g18
sg19
g18
sg20
g1378
sg22
g23
sbag7
(g8
g9
NtRp1513
(dp1514
g12
g18
sg14
S'ITC Zapf Dingbats'
p1515
sg16
I500
sg17
g18
sg19
g18
sg20
g1379
sg22
g23
sbag7
(g8
g9
NtRp1516
(dp1517
g12
g18
sg14
S'Helvetica'
p1518
sg16
I500
sg17
g268
sg19
g18
sg20
g1380
sg22
g23
sbag7
(g8
g9
NtRp1519
(dp1520
g12
g18
sg14
S'Utopia'
p1521
sg16
I700
sg17
g18
sg19
g18
sg20
g1381
sg22
g23
sbag7
(g8
g9
NtRp1522
(dp1523
g12
g18
sg14
S'ITC Avant Garde Gothic'
p1524
sg16
I400
sg17
g18
sg19
g18
sg20
g1382
sg22
g23
sbag7
(g8
g9
NtRp1525
(dp1526
g12
g13
sg14
S'Helvetica'
p1527
sg16
I500
sg17
g18
sg19
g18
sg20
g1383
sg22
g23
sbag7
(g8
g9
NtRp1528
(dp1529
g12
g13
sg14
S'Utopia'
p1530
sg16
I700
sg17
g18
sg19
g18
sg20
g1384
sg22
g23
sbag7
(g8
g9
NtRp1531
(dp1532
g12
g18
sg14
S'Courier'
p1533
sg16
I500
sg17
g18
sg19
g18
sg20
g1385
sg22
g23
sbag7
(g8
g9
NtRp1534
(dp1535
g12
g13
sg14
S'Helvetica'
p1536
sg16
I700
sg17
g18
sg19
g18
sg20
g1386
sg22
g23
sbag7
(g8
g9
NtRp1537
(dp1538
g12
g13
sg14
S'Helvetica'
p1539
sg16
I500
sg17
g18
sg19
g18
sg20
g1387
sg22
g23
sbag7
(g8
g9
NtRp1540
(dp1541
g12
g13
sg14
S'Times'
p1542
sg16
I500
sg17
g18
sg19
g18
sg20
g1388
sg22
g23
sbag7
(g8
g9
NtRp1543
(dp1544
g12
g13
sg14
S'Helvetica'
p1545
sg16
I700
sg17
g18
sg19
g18
sg20
g1389
sg22
g23
sbag7
(g8
g9
NtRp1546
(dp1547
g12
g13
sg14
S'ITC Zapf Chancery'
p1548
sg16
I500
sg17
g18
sg19
g18
sg20
g1390
sg22
g23
sbag7
(g8
g9
NtRp1549
(dp1550
g12
g13
sg14
S'Utopia'
p1551
sg16
I400
sg17
g18
sg19
g18
sg20
g1391
sg22
g23
sbag7
(g8
g9
NtRp1552
(dp1553
g12
g18
sg14
S'ITC Bookman'
p1554
sg16
I600
sg17
g18
sg19
g18
sg20
g1392
sg22
g23
sbag7
(g8
g9
NtRp1555
(dp1556
g12
g18
sg14
S'ZapfDingbats'
p1557
sg16
I500
sg17
g18
sg19
g18
sg20
g1393
sg22
g23
sbag7
(g8
g9
NtRp1558
(dp1559
g12
g18
sg14
S'Helvetica'
p1560
sg16
I500
sg17
g18
sg19
g18
sg20
g1394
sg22
g23
sbag7
(g8
g9
NtRp1561
(dp1562
g12
g18
sg14
S'ITC Bookman'
p1563
sg16
I200
sg17
g18
sg19
g18
sg20
g1395
sg22
g23
sbag7
(g8
g9
NtRp1564
(dp1565
g12
g13
sg14
S'New Century Schoolbook'
p1566
sg16
I700
sg17
g18
sg19
g18
sg20
g1396
sg22
g23
sbag7
(g8
g9
NtRp1567
(dp1568
g12
g18
sg14
S'Utopia'
p1569
sg16
I400
sg17
g18
sg19
g18
sg20
g1397
sg22
g23
sbag7
(g8
g9
NtRp1570
(dp1571
g12
g18
sg14
S'Helvetica'
p1572
sg16
I700
sg17
g18
sg19
g18
sg20
g1398
sg22
g23
sbag7
(g8
g9
NtRp1573
(dp1574
g12
g13
sg14
S'Helvetica'
p1575
sg16
I200
sg17
g18
sg19
g18
sg20
g1399
sg22
g23
sbag7
(g8
g9
NtRp1576
(dp1577
g12
g18
sg14
S'New Century Schoolbook'
p1578
sg16
I700
sg17
g18
sg19
g18
sg20
g1400
sg22
g23
sbag7
(g8
g9
NtRp1579
(dp1580
g12
g18
sg14
S'Helvetica'
p1581
sg16
I700
sg17
g268
sg19
g18
sg20
g1401
sg22
g23
sbag7
(g8
g9
NtRp1582
(dp1583
g12
g13
sg14
S'Courier'
p1584
sg16
I500
sg17
g18
sg19
g18
sg20
g1402
sg22
g23
sbag7
(g8
g9
NtRp1585
(dp1586
g12
g18
sg14
S'Helvetica'
p1587
sg16
I200
sg17
g18
sg19
g18
sg20
g1403
sg22
g23
sbag7
(g8
g9
NtRp1588
(dp1589
g12
g18
sg14
S'Courier'
p1590
sg16
I700
sg17
g18
sg19
g18
sg20
g1404
sg22
g23
sbag7
(g8
g9
NtRp1591
(dp1592
g12
g18
sg14
S'Computer Modern'
p1593
sg16
I500
sg17
g18
sg19
g18
sg20
g1405
sg22
g23
sbag7
(g8
g9
NtRp1594
(dp1595
g12
g13
sg14
S'Computer Modern'
p1596
sg16
I500
sg17
g18
sg19
g18
sg20
g1406
sg22
g23
sbag7
(g8
g9
NtRp1597
(dp1598
g12
g13
sg14
S'ITC Avant Garde Gothic'
p1599
sg16
I400
sg17
g18
sg19
g18
sg20
g1407
sg22
g23
sbag7
(g8
g9
NtRp1600
(dp1601
g12
g18
sg14
S'Times'
p1602
sg16
I500
sg17
g18
sg19
g18
sg20
g1408
sg22
g23
sbag7
(g8
g9
NtRp1603
(dp1604
g12
g13
sg14
S'Courier'
p1605
sg16
I700
sg17
g18
sg19
g18
sg20
g1409
sg22
g23
sbag7
(g8
g9
NtRp1606
(dp1607
g12
g13
sg14
S'Courier'
p1608
sg16
I700
sg17
g18
sg19
g18
sg20
g1410
sg22
g23
sbag7
(g8
g9
NtRp1609
(dp1610
g12
g18
sg14
S'Computer Modern'
p1611
sg16
I500
sg17
g18
sg19
g18
sg20
g1411
sg22
g23
sbag7
(g8
g9
NtRp1612
(dp1613
g12
g18
sg14
S'Times'
p1614
sg16
I500
sg17
g18
sg19
g18
sg20
g1412
sg22
g23
sbag7
(g8
g9
NtRp1615
(dp1616
g12
g18
sg14
S'New Century Schoolbook'
p1617
sg16
I500
sg17
g18
sg19
g18
sg20
g1413
sg22
g23
sbag7
(g8
g9
NtRp1618
(dp1619
g12
g18
sg14
S'Palatino'
p1620
sg16
I700
sg17
g18
sg19
g18
sg20
g1414
sg22
g23
sbag7
(g8
g9
NtRp1621
(dp1622
g12
g13
sg14
S'Palatino'
p1623
sg16
I700
sg17
g18
sg19
g18
sg20
g1415
sg22
g23
sbag7
(g8
g9
NtRp1624
(dp1625
g12
g13
sg14
S'Times'
p1626
sg16
I700
sg17
g18
sg19
g18
sg20
g1416
sg22
g23
sbag7
(g8
g9
NtRp1627
(dp1628
g12
g18
sg14
S'Utopia'
p1629
sg16
I700
sg17
g18
sg19
g18
sg20
g1417
sg22
g23
sbag7
(g8
g9
NtRp1630
(dp1631
g12
g18
sg14
S'Courier 10 Pitch'
p1632
sg16
I700
sg17
g18
sg19
g18
sg20
g1418
sg22
g23
sbag7
(g8
g9
NtRp1633
(dp1634
g12
g13
sg14
S'Luxi Serif'
p1635
sg16
I700
sg17
g18
sg19
g18
sg20
g1419
sg22
g23
sbag7
(g8
g9
NtRp1636
(dp1637
g12
g13
sg14
S'Bitstream Charter'
p1638
sg16
I400
sg17
g18
sg19
g18
sg20
g1420
sg22
g23
sbag7
(g8
g9
NtRp1639
(dp1640
g12
g18
sg14
S'Utopia'
p1641
sg16
I400
sg17
g18
sg19
g18
sg20
g1421
sg22
g23
sbag7
(g8
g9
NtRp1642
(dp1643
g12
g13
sg14
S'Courier 10 Pitch'
p1644
sg16
I400
sg17
g18
sg19
g18
sg20
g1422
sg22
g23
sbag7
(g8
g9
NtRp1645
(dp1646
g12
g18
sg14
S'Bitstream Charter'
p1647
sg16
I400
sg17
g18
sg19
g18
sg20
g1423
sg22
g23
sbag7
(g8
g9
NtRp1648
(dp1649
g12
g13
sg14
S'Bitstream Charter'
p1650
sg16
I700
sg17
g18
sg19
g18
sg20
g1424
sg22
g23
sbag7
(g8
g9
NtRp1651
(dp1652
g12
g18
sg14
S'Luxi Sans'
p1653
sg16
I400
sg17
g18
sg19
g18
sg20
g1425
sg22
g23
sbag7
(g8
g9
NtRp1654
(dp1655
g12
g18
sg14
S'Courier'
p1656
sg16
I700
sg17
g18
sg19
g18
sg20
g1426
sg22
g23
sbag7
(g8
g9
NtRp1657
(dp1658
g12
g18
sg14
S'Courier 10 Pitch'
p1659
sg16
I400
sg17
g18
sg19
g18
sg20
g1427
sg22
g23
sbag7
(g8
g9
NtRp1660
(dp1661
g12
g13
sg14
S'Utopia'
p1662
sg16
I400
sg17
g18
sg19
g18
sg20
g1428
sg22
g23
sbag7
(g8
g9
NtRp1663
(dp1664
g12
g18
sg14
S'Luxi Serif'
p1665
sg16
I700
sg17
g18
sg19
g18
sg20
g1429
sg22
g23
sbag7
(g8
g9
NtRp1666
(dp1667
g12
g13
sg14
S'Luxi Sans'
p1668
sg16
I400
sg17
g18
sg19
g18
sg20
g1430
sg22
g23
sbag7
(g8
g9
NtRp1669
(dp1670
g12
g18
sg14
S'Luxi Sans'
p1671
sg16
I700
sg17
g18
sg19
g18
sg20
g1431
sg22
g23
sbag7
(g8
g9
NtRp1672
(dp1673
g12
g13
sg14
S'Luxi Sans'
p1674
sg16
I700
sg17
g18
sg19
g18
sg20
g1432
sg22
g23
sbag7
(g8
g9
NtRp1675
(dp1676
g12
g13
sg14
S'Courier'
p1677
sg16
I700
sg17
g18
sg19
g18
sg20
g1433
sg22
g23
sbag7
(g8
g9
NtRp1678
(dp1679
g12
g18
sg14
S'Bitstream Charter'
p1680
sg16
I700
sg17
g18
sg19
g18
sg20
g1434
sg22
g23
sbag7
(g8
g9
NtRp1681
(dp1682
g12
g18
sg14
S'Luxi Serif'
p1683
sg16
I400
sg17
g18
sg19
g18
sg20
g1435
sg22
g23
sbag7
(g8
g9
NtRp1684
(dp1685
g12
g13
sg14
S'Courier 10 Pitch'
p1686
sg16
I700
sg17
g18
sg19
g18
sg20
g1436
sg22
g23
sbag7
(g8
g9
NtRp1687
(dp1688
g12
g13
sg14
S'Luxi Mono'
p1689
sg16
I700
sg17
g18
sg19
g18
sg20
g1437
sg22
g23
sbag7
(g8
g9
NtRp1690
(dp1691
g12
g18
sg14
S'Luxi Mono'
p1692
sg16
I700
sg17
g18
sg19
g18
sg20
g1438
sg22
g23
sbag7
(g8
g9
NtRp1693
(dp1694
g12
g13
sg14
S'Luxi Mono'
p1695
sg16
I400
sg17
g18
sg19
g18
sg20
g1439
sg22
g23
sbag7
(g8
g9
NtRp1696
(dp1697
g12
g18
sg14
S'Luxi Mono'
p1698
sg16
I400
sg17
g18
sg19
g18
sg20
g1440
sg22
g23
sbag7
(g8
g9
NtRp1699
(dp1700
g12
g13
sg14
S'Luxi Serif'
p1701
sg16
I400
sg17
g18
sg19
g18
sg20
g1441
sg22
g23
sbag7
(g8
g9
NtRp1702
(dp1703
g12
g13
sg14
S'Utopia'
p1704
sg16
I700
sg17
g18
sg19
g18
sg20
g1442
sg22
g23
sbag7
(g8
g9
NtRp1705
(dp1706
g12
g18
sg14
S'Courier'
p1707
sg16
I400
sg17
g18
sg19
g18
sg20
g1443
sg22
g23
sbag7
(g8
g9
NtRp1708
(dp1709
g12
g13
sg14
S'Courier'
p1710
sg16
I400
sg17
g18
sg19
g18
sg20
g1444
sg22
g23
sbasb.